ARM GAS  /tmp/ccxbrxtl.s 			page 1


   1              		.cpu cortex-m0plus
   2              		.arch armv6s-m
   3              		.fpu softvfp
   4              		.eabi_attribute 20, 1
   5              		.eabi_attribute 21, 1
   6              		.eabi_attribute 23, 3
   7              		.eabi_attribute 24, 1
   8              		.eabi_attribute 25, 1
   9              		.eabi_attribute 26, 1
  10              		.eabi_attribute 30, 1
  11              		.eabi_attribute 34, 0
  12              		.eabi_attribute 18, 4
  13              		.file	"stm32g0xx_hal.c"
  14              		.text
  15              	.Ltext0:
  16              		.cfi_sections	.debug_frame
  17              		.file 1 "Drivers/STM32G0xx_HAL_Driver/Src/stm32g0xx_hal.c"
  18              		.section	.text.HAL_MspInit,"ax",%progbits
  19              		.align	1
  20              		.weak	HAL_MspInit
  21              		.syntax unified
  22              		.code	16
  23              		.thumb_func
  25              	HAL_MspInit:
  26              	.LFB312:
   1:Drivers/STM32G0xx_HAL_Driver/Src/stm32g0xx_hal.c **** /**
   2:Drivers/STM32G0xx_HAL_Driver/Src/stm32g0xx_hal.c ****   ******************************************************************************
   3:Drivers/STM32G0xx_HAL_Driver/Src/stm32g0xx_hal.c ****   * @file    stm32g0xx_hal.c
   4:Drivers/STM32G0xx_HAL_Driver/Src/stm32g0xx_hal.c ****   * @author  MCD Application Team
   5:Drivers/STM32G0xx_HAL_Driver/Src/stm32g0xx_hal.c ****   * @brief   HAL module driver.
   6:Drivers/STM32G0xx_HAL_Driver/Src/stm32g0xx_hal.c ****   *          This is the common part of the HAL initialization
   7:Drivers/STM32G0xx_HAL_Driver/Src/stm32g0xx_hal.c ****   *
   8:Drivers/STM32G0xx_HAL_Driver/Src/stm32g0xx_hal.c ****   ******************************************************************************
   9:Drivers/STM32G0xx_HAL_Driver/Src/stm32g0xx_hal.c ****   * @attention
  10:Drivers/STM32G0xx_HAL_Driver/Src/stm32g0xx_hal.c ****   *
  11:Drivers/STM32G0xx_HAL_Driver/Src/stm32g0xx_hal.c ****   * Copyright (c) 2018 STMicroelectronics. 
  12:Drivers/STM32G0xx_HAL_Driver/Src/stm32g0xx_hal.c ****   * All rights reserved.
  13:Drivers/STM32G0xx_HAL_Driver/Src/stm32g0xx_hal.c ****   *
  14:Drivers/STM32G0xx_HAL_Driver/Src/stm32g0xx_hal.c ****   * This software is licensed under terms that can be found in the LICENSE file
  15:Drivers/STM32G0xx_HAL_Driver/Src/stm32g0xx_hal.c ****   * in the root directory of this software component.
  16:Drivers/STM32G0xx_HAL_Driver/Src/stm32g0xx_hal.c ****   * If no LICENSE file comes with this software, it is provided AS-IS.
  17:Drivers/STM32G0xx_HAL_Driver/Src/stm32g0xx_hal.c ****   *
  18:Drivers/STM32G0xx_HAL_Driver/Src/stm32g0xx_hal.c ****   ******************************************************************************
  19:Drivers/STM32G0xx_HAL_Driver/Src/stm32g0xx_hal.c ****   @verbatim
  20:Drivers/STM32G0xx_HAL_Driver/Src/stm32g0xx_hal.c ****   ==============================================================================
  21:Drivers/STM32G0xx_HAL_Driver/Src/stm32g0xx_hal.c ****                      ##### How to use this driver #####
  22:Drivers/STM32G0xx_HAL_Driver/Src/stm32g0xx_hal.c ****   ==============================================================================
  23:Drivers/STM32G0xx_HAL_Driver/Src/stm32g0xx_hal.c ****     [..]
  24:Drivers/STM32G0xx_HAL_Driver/Src/stm32g0xx_hal.c ****     The common HAL driver contains a set of generic and common APIs that can be
  25:Drivers/STM32G0xx_HAL_Driver/Src/stm32g0xx_hal.c ****     used by the PPP peripheral drivers and the user to start using the HAL.
  26:Drivers/STM32G0xx_HAL_Driver/Src/stm32g0xx_hal.c ****     [..]
  27:Drivers/STM32G0xx_HAL_Driver/Src/stm32g0xx_hal.c ****     The HAL contains two APIs categories:
  28:Drivers/STM32G0xx_HAL_Driver/Src/stm32g0xx_hal.c ****          (+) Common HAL APIs
  29:Drivers/STM32G0xx_HAL_Driver/Src/stm32g0xx_hal.c ****          (+) Services HAL APIs
  30:Drivers/STM32G0xx_HAL_Driver/Src/stm32g0xx_hal.c **** 
  31:Drivers/STM32G0xx_HAL_Driver/Src/stm32g0xx_hal.c ****   @endverbatim
  32:Drivers/STM32G0xx_HAL_Driver/Src/stm32g0xx_hal.c ****   ******************************************************************************
ARM GAS  /tmp/ccxbrxtl.s 			page 2


  33:Drivers/STM32G0xx_HAL_Driver/Src/stm32g0xx_hal.c ****   */
  34:Drivers/STM32G0xx_HAL_Driver/Src/stm32g0xx_hal.c **** 
  35:Drivers/STM32G0xx_HAL_Driver/Src/stm32g0xx_hal.c **** /* Includes ------------------------------------------------------------------*/
  36:Drivers/STM32G0xx_HAL_Driver/Src/stm32g0xx_hal.c **** #include "stm32g0xx_hal.h"
  37:Drivers/STM32G0xx_HAL_Driver/Src/stm32g0xx_hal.c **** 
  38:Drivers/STM32G0xx_HAL_Driver/Src/stm32g0xx_hal.c **** /** @addtogroup STM32G0xx_HAL_Driver
  39:Drivers/STM32G0xx_HAL_Driver/Src/stm32g0xx_hal.c ****   * @{
  40:Drivers/STM32G0xx_HAL_Driver/Src/stm32g0xx_hal.c ****   */
  41:Drivers/STM32G0xx_HAL_Driver/Src/stm32g0xx_hal.c **** 
  42:Drivers/STM32G0xx_HAL_Driver/Src/stm32g0xx_hal.c **** /** @addtogroup HAL
  43:Drivers/STM32G0xx_HAL_Driver/Src/stm32g0xx_hal.c ****   * @brief HAL module driver
  44:Drivers/STM32G0xx_HAL_Driver/Src/stm32g0xx_hal.c ****   * @{
  45:Drivers/STM32G0xx_HAL_Driver/Src/stm32g0xx_hal.c ****   */
  46:Drivers/STM32G0xx_HAL_Driver/Src/stm32g0xx_hal.c **** 
  47:Drivers/STM32G0xx_HAL_Driver/Src/stm32g0xx_hal.c **** #ifdef HAL_MODULE_ENABLED
  48:Drivers/STM32G0xx_HAL_Driver/Src/stm32g0xx_hal.c **** 
  49:Drivers/STM32G0xx_HAL_Driver/Src/stm32g0xx_hal.c **** /* Private typedef -----------------------------------------------------------*/
  50:Drivers/STM32G0xx_HAL_Driver/Src/stm32g0xx_hal.c **** /* Private define ------------------------------------------------------------*/
  51:Drivers/STM32G0xx_HAL_Driver/Src/stm32g0xx_hal.c **** 
  52:Drivers/STM32G0xx_HAL_Driver/Src/stm32g0xx_hal.c **** /** @defgroup HAL_Private_Constants HAL Private Constants
  53:Drivers/STM32G0xx_HAL_Driver/Src/stm32g0xx_hal.c ****   * @{
  54:Drivers/STM32G0xx_HAL_Driver/Src/stm32g0xx_hal.c ****   */
  55:Drivers/STM32G0xx_HAL_Driver/Src/stm32g0xx_hal.c **** /**
  56:Drivers/STM32G0xx_HAL_Driver/Src/stm32g0xx_hal.c ****   * @brief STM32G0xx HAL Driver version number
  57:Drivers/STM32G0xx_HAL_Driver/Src/stm32g0xx_hal.c ****   */
  58:Drivers/STM32G0xx_HAL_Driver/Src/stm32g0xx_hal.c **** #define __STM32G0xx_HAL_VERSION_MAIN   (0x01U) /*!< [31:24] main version */
  59:Drivers/STM32G0xx_HAL_Driver/Src/stm32g0xx_hal.c **** #define __STM32G0xx_HAL_VERSION_SUB1   (0x04U) /*!< [23:16] sub1 version */
  60:Drivers/STM32G0xx_HAL_Driver/Src/stm32g0xx_hal.c **** #define __STM32G0xx_HAL_VERSION_SUB2   (0x06U) /*!< [15:8]  sub2 version */
  61:Drivers/STM32G0xx_HAL_Driver/Src/stm32g0xx_hal.c **** #define __STM32G0xx_HAL_VERSION_RC     (0x00U) /*!< [7:0]  release candidate */
  62:Drivers/STM32G0xx_HAL_Driver/Src/stm32g0xx_hal.c **** #define __STM32G0xx_HAL_VERSION         ((__STM32G0xx_HAL_VERSION_MAIN << 24U)\
  63:Drivers/STM32G0xx_HAL_Driver/Src/stm32g0xx_hal.c ****                                         |(__STM32G0xx_HAL_VERSION_SUB1 << 16U)\
  64:Drivers/STM32G0xx_HAL_Driver/Src/stm32g0xx_hal.c ****                                         |(__STM32G0xx_HAL_VERSION_SUB2 << 8U )\
  65:Drivers/STM32G0xx_HAL_Driver/Src/stm32g0xx_hal.c ****                                         |(__STM32G0xx_HAL_VERSION_RC))
  66:Drivers/STM32G0xx_HAL_Driver/Src/stm32g0xx_hal.c **** 
  67:Drivers/STM32G0xx_HAL_Driver/Src/stm32g0xx_hal.c **** #if defined(VREFBUF)
  68:Drivers/STM32G0xx_HAL_Driver/Src/stm32g0xx_hal.c **** #define VREFBUF_TIMEOUT_VALUE     10U   /*!<  10 ms */
  69:Drivers/STM32G0xx_HAL_Driver/Src/stm32g0xx_hal.c **** #endif /* VREFBUF */
  70:Drivers/STM32G0xx_HAL_Driver/Src/stm32g0xx_hal.c **** 
  71:Drivers/STM32G0xx_HAL_Driver/Src/stm32g0xx_hal.c **** /**
  72:Drivers/STM32G0xx_HAL_Driver/Src/stm32g0xx_hal.c ****   * @}
  73:Drivers/STM32G0xx_HAL_Driver/Src/stm32g0xx_hal.c ****   */
  74:Drivers/STM32G0xx_HAL_Driver/Src/stm32g0xx_hal.c **** 
  75:Drivers/STM32G0xx_HAL_Driver/Src/stm32g0xx_hal.c **** /* Private macro -------------------------------------------------------------*/
  76:Drivers/STM32G0xx_HAL_Driver/Src/stm32g0xx_hal.c **** /* Exported variables ---------------------------------------------------------*/
  77:Drivers/STM32G0xx_HAL_Driver/Src/stm32g0xx_hal.c **** /** @defgroup HAL_Exported_Variables HAL Exported Variables
  78:Drivers/STM32G0xx_HAL_Driver/Src/stm32g0xx_hal.c ****   * @{
  79:Drivers/STM32G0xx_HAL_Driver/Src/stm32g0xx_hal.c ****   */
  80:Drivers/STM32G0xx_HAL_Driver/Src/stm32g0xx_hal.c **** __IO uint32_t uwTick;
  81:Drivers/STM32G0xx_HAL_Driver/Src/stm32g0xx_hal.c **** uint32_t uwTickPrio = (1UL << __NVIC_PRIO_BITS); /* Invalid PRIO */
  82:Drivers/STM32G0xx_HAL_Driver/Src/stm32g0xx_hal.c **** HAL_TickFreqTypeDef uwTickFreq = HAL_TICK_FREQ_DEFAULT;  /* 1KHz */
  83:Drivers/STM32G0xx_HAL_Driver/Src/stm32g0xx_hal.c **** /**
  84:Drivers/STM32G0xx_HAL_Driver/Src/stm32g0xx_hal.c ****   * @}
  85:Drivers/STM32G0xx_HAL_Driver/Src/stm32g0xx_hal.c ****   */
  86:Drivers/STM32G0xx_HAL_Driver/Src/stm32g0xx_hal.c **** 
  87:Drivers/STM32G0xx_HAL_Driver/Src/stm32g0xx_hal.c **** /* Private function prototypes -----------------------------------------------*/
  88:Drivers/STM32G0xx_HAL_Driver/Src/stm32g0xx_hal.c **** /* Exported functions --------------------------------------------------------*/
  89:Drivers/STM32G0xx_HAL_Driver/Src/stm32g0xx_hal.c **** 
ARM GAS  /tmp/ccxbrxtl.s 			page 3


  90:Drivers/STM32G0xx_HAL_Driver/Src/stm32g0xx_hal.c **** /** @addtogroup HAL_Exported_Functions
  91:Drivers/STM32G0xx_HAL_Driver/Src/stm32g0xx_hal.c ****   * @{
  92:Drivers/STM32G0xx_HAL_Driver/Src/stm32g0xx_hal.c ****   */
  93:Drivers/STM32G0xx_HAL_Driver/Src/stm32g0xx_hal.c **** 
  94:Drivers/STM32G0xx_HAL_Driver/Src/stm32g0xx_hal.c **** /** @addtogroup HAL_Exported_Functions_Group1
  95:Drivers/STM32G0xx_HAL_Driver/Src/stm32g0xx_hal.c ****  *  @brief    HAL Initialization and Configuration functions
  96:Drivers/STM32G0xx_HAL_Driver/Src/stm32g0xx_hal.c ****  *
  97:Drivers/STM32G0xx_HAL_Driver/Src/stm32g0xx_hal.c **** @verbatim
  98:Drivers/STM32G0xx_HAL_Driver/Src/stm32g0xx_hal.c ****  ===============================================================================
  99:Drivers/STM32G0xx_HAL_Driver/Src/stm32g0xx_hal.c ****            ##### HAL Initialization and Configuration functions #####
 100:Drivers/STM32G0xx_HAL_Driver/Src/stm32g0xx_hal.c ****  ===============================================================================
 101:Drivers/STM32G0xx_HAL_Driver/Src/stm32g0xx_hal.c ****     [..]  This section provides functions allowing to:
 102:Drivers/STM32G0xx_HAL_Driver/Src/stm32g0xx_hal.c ****       (+) Initialize the Flash interface the NVIC allocation and initial time base
 103:Drivers/STM32G0xx_HAL_Driver/Src/stm32g0xx_hal.c ****           clock configuration.
 104:Drivers/STM32G0xx_HAL_Driver/Src/stm32g0xx_hal.c ****       (+) De-initialize common part of the HAL.
 105:Drivers/STM32G0xx_HAL_Driver/Src/stm32g0xx_hal.c ****       (+) Configure the time base source to have 1ms time base with a dedicated
 106:Drivers/STM32G0xx_HAL_Driver/Src/stm32g0xx_hal.c ****           Tick interrupt priority.
 107:Drivers/STM32G0xx_HAL_Driver/Src/stm32g0xx_hal.c ****         (++) SysTick timer is used by default as source of time base, but user
 108:Drivers/STM32G0xx_HAL_Driver/Src/stm32g0xx_hal.c ****              can eventually implement his proper time base source (a general purpose
 109:Drivers/STM32G0xx_HAL_Driver/Src/stm32g0xx_hal.c ****              timer for example or other time source), keeping in mind that Time base
 110:Drivers/STM32G0xx_HAL_Driver/Src/stm32g0xx_hal.c ****              duration should be kept 1ms since PPP_TIMEOUT_VALUEs are defined and
 111:Drivers/STM32G0xx_HAL_Driver/Src/stm32g0xx_hal.c ****              handled in milliseconds basis.
 112:Drivers/STM32G0xx_HAL_Driver/Src/stm32g0xx_hal.c ****         (++) Time base configuration function (HAL_InitTick ()) is called automatically
 113:Drivers/STM32G0xx_HAL_Driver/Src/stm32g0xx_hal.c ****              at the beginning of the program after reset by HAL_Init() or at any time
 114:Drivers/STM32G0xx_HAL_Driver/Src/stm32g0xx_hal.c ****              when clock is configured, by HAL_RCC_ClockConfig().
 115:Drivers/STM32G0xx_HAL_Driver/Src/stm32g0xx_hal.c ****         (++) Source of time base is configured  to generate interrupts at regular
 116:Drivers/STM32G0xx_HAL_Driver/Src/stm32g0xx_hal.c ****              time intervals. Care must be taken if HAL_Delay() is called from a
 117:Drivers/STM32G0xx_HAL_Driver/Src/stm32g0xx_hal.c ****              peripheral ISR process, the Tick interrupt line must have higher priority
 118:Drivers/STM32G0xx_HAL_Driver/Src/stm32g0xx_hal.c ****             (numerically lower) than the peripheral interrupt. Otherwise the caller
 119:Drivers/STM32G0xx_HAL_Driver/Src/stm32g0xx_hal.c ****             ISR process will be blocked.
 120:Drivers/STM32G0xx_HAL_Driver/Src/stm32g0xx_hal.c ****        (++) functions affecting time base configurations are declared as __weak
 121:Drivers/STM32G0xx_HAL_Driver/Src/stm32g0xx_hal.c ****              to make  override possible  in case of other  implementations in user file.
 122:Drivers/STM32G0xx_HAL_Driver/Src/stm32g0xx_hal.c **** @endverbatim
 123:Drivers/STM32G0xx_HAL_Driver/Src/stm32g0xx_hal.c ****   * @{
 124:Drivers/STM32G0xx_HAL_Driver/Src/stm32g0xx_hal.c ****   */
 125:Drivers/STM32G0xx_HAL_Driver/Src/stm32g0xx_hal.c **** 
 126:Drivers/STM32G0xx_HAL_Driver/Src/stm32g0xx_hal.c **** /**
 127:Drivers/STM32G0xx_HAL_Driver/Src/stm32g0xx_hal.c ****   * @brief  Configure the Flash prefetch and the Instruction cache,
 128:Drivers/STM32G0xx_HAL_Driver/Src/stm32g0xx_hal.c ****   *         the time base source, NVIC and any required global low level hardware
 129:Drivers/STM32G0xx_HAL_Driver/Src/stm32g0xx_hal.c ****   *         by calling the HAL_MspInit() callback function to be optionally defined in user file
 130:Drivers/STM32G0xx_HAL_Driver/Src/stm32g0xx_hal.c ****   *         stm32g0xx_hal_msp.c.
 131:Drivers/STM32G0xx_HAL_Driver/Src/stm32g0xx_hal.c ****   *
 132:Drivers/STM32G0xx_HAL_Driver/Src/stm32g0xx_hal.c ****   * @note   HAL_Init() function is called at the beginning of program after reset and before
 133:Drivers/STM32G0xx_HAL_Driver/Src/stm32g0xx_hal.c ****   *         the clock configuration.
 134:Drivers/STM32G0xx_HAL_Driver/Src/stm32g0xx_hal.c ****   *
 135:Drivers/STM32G0xx_HAL_Driver/Src/stm32g0xx_hal.c ****   * @note   In the default implementation the System Timer (Systick) is used as source of time base
 136:Drivers/STM32G0xx_HAL_Driver/Src/stm32g0xx_hal.c ****   *         The Systick configuration is based on HSI clock, as HSI is the clock
 137:Drivers/STM32G0xx_HAL_Driver/Src/stm32g0xx_hal.c ****   *         used after a system Reset.
 138:Drivers/STM32G0xx_HAL_Driver/Src/stm32g0xx_hal.c ****   *         Once done, time base tick starts incrementing: the tick variable counter is incremented
 139:Drivers/STM32G0xx_HAL_Driver/Src/stm32g0xx_hal.c ****   *         each 1ms in the SysTick_Handler() interrupt handler.
 140:Drivers/STM32G0xx_HAL_Driver/Src/stm32g0xx_hal.c ****   *
 141:Drivers/STM32G0xx_HAL_Driver/Src/stm32g0xx_hal.c ****   * @retval HAL status
 142:Drivers/STM32G0xx_HAL_Driver/Src/stm32g0xx_hal.c ****   */
 143:Drivers/STM32G0xx_HAL_Driver/Src/stm32g0xx_hal.c **** HAL_StatusTypeDef HAL_Init(void)
 144:Drivers/STM32G0xx_HAL_Driver/Src/stm32g0xx_hal.c **** {
 145:Drivers/STM32G0xx_HAL_Driver/Src/stm32g0xx_hal.c ****   HAL_StatusTypeDef  status = HAL_OK;
 146:Drivers/STM32G0xx_HAL_Driver/Src/stm32g0xx_hal.c **** 
ARM GAS  /tmp/ccxbrxtl.s 			page 4


 147:Drivers/STM32G0xx_HAL_Driver/Src/stm32g0xx_hal.c ****   /* Configure Flash prefetch, Instruction cache             */
 148:Drivers/STM32G0xx_HAL_Driver/Src/stm32g0xx_hal.c ****   /* Default configuration at reset is:                      */
 149:Drivers/STM32G0xx_HAL_Driver/Src/stm32g0xx_hal.c ****   /* - Prefetch disabled                                     */
 150:Drivers/STM32G0xx_HAL_Driver/Src/stm32g0xx_hal.c ****   /* - Instruction cache enabled                             */
 151:Drivers/STM32G0xx_HAL_Driver/Src/stm32g0xx_hal.c **** 
 152:Drivers/STM32G0xx_HAL_Driver/Src/stm32g0xx_hal.c **** #if (INSTRUCTION_CACHE_ENABLE == 0U)
 153:Drivers/STM32G0xx_HAL_Driver/Src/stm32g0xx_hal.c ****   __HAL_FLASH_INSTRUCTION_CACHE_DISABLE();
 154:Drivers/STM32G0xx_HAL_Driver/Src/stm32g0xx_hal.c **** #endif /* INSTRUCTION_CACHE_ENABLE */
 155:Drivers/STM32G0xx_HAL_Driver/Src/stm32g0xx_hal.c **** 
 156:Drivers/STM32G0xx_HAL_Driver/Src/stm32g0xx_hal.c **** #if (PREFETCH_ENABLE != 0U)
 157:Drivers/STM32G0xx_HAL_Driver/Src/stm32g0xx_hal.c ****   __HAL_FLASH_PREFETCH_BUFFER_ENABLE();
 158:Drivers/STM32G0xx_HAL_Driver/Src/stm32g0xx_hal.c **** #endif /* PREFETCH_ENABLE */
 159:Drivers/STM32G0xx_HAL_Driver/Src/stm32g0xx_hal.c **** 
 160:Drivers/STM32G0xx_HAL_Driver/Src/stm32g0xx_hal.c ****   /* Use SysTick as time base source and configure 1ms tick (default clock after Reset is HSI) */
 161:Drivers/STM32G0xx_HAL_Driver/Src/stm32g0xx_hal.c ****   if (HAL_InitTick(TICK_INT_PRIORITY) != HAL_OK)
 162:Drivers/STM32G0xx_HAL_Driver/Src/stm32g0xx_hal.c ****   {
 163:Drivers/STM32G0xx_HAL_Driver/Src/stm32g0xx_hal.c ****     status = HAL_ERROR;
 164:Drivers/STM32G0xx_HAL_Driver/Src/stm32g0xx_hal.c ****   }
 165:Drivers/STM32G0xx_HAL_Driver/Src/stm32g0xx_hal.c ****   else
 166:Drivers/STM32G0xx_HAL_Driver/Src/stm32g0xx_hal.c ****   {
 167:Drivers/STM32G0xx_HAL_Driver/Src/stm32g0xx_hal.c ****   /* Init the low level hardware */
 168:Drivers/STM32G0xx_HAL_Driver/Src/stm32g0xx_hal.c ****   HAL_MspInit();
 169:Drivers/STM32G0xx_HAL_Driver/Src/stm32g0xx_hal.c ****   }
 170:Drivers/STM32G0xx_HAL_Driver/Src/stm32g0xx_hal.c **** 
 171:Drivers/STM32G0xx_HAL_Driver/Src/stm32g0xx_hal.c ****   /* Return function status */
 172:Drivers/STM32G0xx_HAL_Driver/Src/stm32g0xx_hal.c ****   return status;
 173:Drivers/STM32G0xx_HAL_Driver/Src/stm32g0xx_hal.c **** }
 174:Drivers/STM32G0xx_HAL_Driver/Src/stm32g0xx_hal.c **** 
 175:Drivers/STM32G0xx_HAL_Driver/Src/stm32g0xx_hal.c **** /**
 176:Drivers/STM32G0xx_HAL_Driver/Src/stm32g0xx_hal.c ****   * @brief  This function de-Initializes common part of the HAL and stops the source of time base.
 177:Drivers/STM32G0xx_HAL_Driver/Src/stm32g0xx_hal.c ****   * @note   This function is optional.
 178:Drivers/STM32G0xx_HAL_Driver/Src/stm32g0xx_hal.c ****   * @retval HAL status
 179:Drivers/STM32G0xx_HAL_Driver/Src/stm32g0xx_hal.c ****   */
 180:Drivers/STM32G0xx_HAL_Driver/Src/stm32g0xx_hal.c **** HAL_StatusTypeDef HAL_DeInit(void)
 181:Drivers/STM32G0xx_HAL_Driver/Src/stm32g0xx_hal.c **** {
 182:Drivers/STM32G0xx_HAL_Driver/Src/stm32g0xx_hal.c ****   /* Reset of all peripherals */
 183:Drivers/STM32G0xx_HAL_Driver/Src/stm32g0xx_hal.c ****   __HAL_RCC_APB1_FORCE_RESET();
 184:Drivers/STM32G0xx_HAL_Driver/Src/stm32g0xx_hal.c ****   __HAL_RCC_APB1_RELEASE_RESET();
 185:Drivers/STM32G0xx_HAL_Driver/Src/stm32g0xx_hal.c **** 
 186:Drivers/STM32G0xx_HAL_Driver/Src/stm32g0xx_hal.c ****   __HAL_RCC_APB2_FORCE_RESET();
 187:Drivers/STM32G0xx_HAL_Driver/Src/stm32g0xx_hal.c ****   __HAL_RCC_APB2_RELEASE_RESET();
 188:Drivers/STM32G0xx_HAL_Driver/Src/stm32g0xx_hal.c **** 
 189:Drivers/STM32G0xx_HAL_Driver/Src/stm32g0xx_hal.c ****   __HAL_RCC_AHB_FORCE_RESET();
 190:Drivers/STM32G0xx_HAL_Driver/Src/stm32g0xx_hal.c ****   __HAL_RCC_AHB_RELEASE_RESET();
 191:Drivers/STM32G0xx_HAL_Driver/Src/stm32g0xx_hal.c **** 
 192:Drivers/STM32G0xx_HAL_Driver/Src/stm32g0xx_hal.c ****   __HAL_RCC_IOP_FORCE_RESET();
 193:Drivers/STM32G0xx_HAL_Driver/Src/stm32g0xx_hal.c ****   __HAL_RCC_IOP_RELEASE_RESET();
 194:Drivers/STM32G0xx_HAL_Driver/Src/stm32g0xx_hal.c **** 
 195:Drivers/STM32G0xx_HAL_Driver/Src/stm32g0xx_hal.c ****   /* De-Init the low level hardware */
 196:Drivers/STM32G0xx_HAL_Driver/Src/stm32g0xx_hal.c ****   HAL_MspDeInit();
 197:Drivers/STM32G0xx_HAL_Driver/Src/stm32g0xx_hal.c **** 
 198:Drivers/STM32G0xx_HAL_Driver/Src/stm32g0xx_hal.c ****   /* Return function status */
 199:Drivers/STM32G0xx_HAL_Driver/Src/stm32g0xx_hal.c ****   return HAL_OK;
 200:Drivers/STM32G0xx_HAL_Driver/Src/stm32g0xx_hal.c **** }
 201:Drivers/STM32G0xx_HAL_Driver/Src/stm32g0xx_hal.c **** 
 202:Drivers/STM32G0xx_HAL_Driver/Src/stm32g0xx_hal.c **** /**
 203:Drivers/STM32G0xx_HAL_Driver/Src/stm32g0xx_hal.c ****   * @brief  Initialize the MSP.
ARM GAS  /tmp/ccxbrxtl.s 			page 5


 204:Drivers/STM32G0xx_HAL_Driver/Src/stm32g0xx_hal.c ****   * @retval None
 205:Drivers/STM32G0xx_HAL_Driver/Src/stm32g0xx_hal.c ****   */
 206:Drivers/STM32G0xx_HAL_Driver/Src/stm32g0xx_hal.c **** __weak void HAL_MspInit(void)
 207:Drivers/STM32G0xx_HAL_Driver/Src/stm32g0xx_hal.c **** {
  27              		.loc 1 207 1 view -0
  28              		.cfi_startproc
  29              		@ args = 0, pretend = 0, frame = 0
  30              		@ frame_needed = 0, uses_anonymous_args = 0
  31              		@ link register save eliminated.
 208:Drivers/STM32G0xx_HAL_Driver/Src/stm32g0xx_hal.c ****   /* NOTE : This function should not be modified, when the callback is needed,
 209:Drivers/STM32G0xx_HAL_Driver/Src/stm32g0xx_hal.c ****             the HAL_MspInit could be implemented in the user file
 210:Drivers/STM32G0xx_HAL_Driver/Src/stm32g0xx_hal.c ****    */
 211:Drivers/STM32G0xx_HAL_Driver/Src/stm32g0xx_hal.c **** }
  32              		.loc 1 211 1 view .LVU1
  33              		@ sp needed
  34 0000 7047     		bx	lr
  35              		.cfi_endproc
  36              	.LFE312:
  38              		.section	.text.HAL_MspDeInit,"ax",%progbits
  39              		.align	1
  40              		.weak	HAL_MspDeInit
  41              		.syntax unified
  42              		.code	16
  43              		.thumb_func
  45              	HAL_MspDeInit:
  46              	.LFB313:
 212:Drivers/STM32G0xx_HAL_Driver/Src/stm32g0xx_hal.c **** 
 213:Drivers/STM32G0xx_HAL_Driver/Src/stm32g0xx_hal.c **** /**
 214:Drivers/STM32G0xx_HAL_Driver/Src/stm32g0xx_hal.c ****   * @brief  DeInitializes the MSP.
 215:Drivers/STM32G0xx_HAL_Driver/Src/stm32g0xx_hal.c ****   * @retval None
 216:Drivers/STM32G0xx_HAL_Driver/Src/stm32g0xx_hal.c ****   */
 217:Drivers/STM32G0xx_HAL_Driver/Src/stm32g0xx_hal.c **** __weak void HAL_MspDeInit(void)
 218:Drivers/STM32G0xx_HAL_Driver/Src/stm32g0xx_hal.c **** {
  47              		.loc 1 218 1 view -0
  48              		.cfi_startproc
  49              		@ args = 0, pretend = 0, frame = 0
  50              		@ frame_needed = 0, uses_anonymous_args = 0
  51              		@ link register save eliminated.
 219:Drivers/STM32G0xx_HAL_Driver/Src/stm32g0xx_hal.c ****   /* NOTE : This function should not be modified, when the callback is needed,
 220:Drivers/STM32G0xx_HAL_Driver/Src/stm32g0xx_hal.c ****             the HAL_MspDeInit could be implemented in the user file
 221:Drivers/STM32G0xx_HAL_Driver/Src/stm32g0xx_hal.c ****    */
 222:Drivers/STM32G0xx_HAL_Driver/Src/stm32g0xx_hal.c **** }
  52              		.loc 1 222 1 view .LVU3
  53              		@ sp needed
  54 0000 7047     		bx	lr
  55              		.cfi_endproc
  56              	.LFE313:
  58              		.section	.text.HAL_DeInit,"ax",%progbits
  59              		.align	1
  60              		.global	HAL_DeInit
  61              		.syntax unified
  62              		.code	16
  63              		.thumb_func
  65              	HAL_DeInit:
  66              	.LFB311:
 181:Drivers/STM32G0xx_HAL_Driver/Src/stm32g0xx_hal.c ****   /* Reset of all peripherals */
  67              		.loc 1 181 1 view -0
ARM GAS  /tmp/ccxbrxtl.s 			page 6


  68              		.cfi_startproc
  69              		@ args = 0, pretend = 0, frame = 0
  70              		@ frame_needed = 0, uses_anonymous_args = 0
  71 0000 10B5     		push	{r4, lr}
  72              	.LCFI0:
  73              		.cfi_def_cfa_offset 8
  74              		.cfi_offset 4, -8
  75              		.cfi_offset 14, -4
 183:Drivers/STM32G0xx_HAL_Driver/Src/stm32g0xx_hal.c ****   __HAL_RCC_APB1_RELEASE_RESET();
  76              		.loc 1 183 3 view .LVU5
  77 0002 084B     		ldr	r3, .L4
  78 0004 0121     		movs	r1, #1
  79 0006 4942     		rsbs	r1, r1, #0
  80 0008 D962     		str	r1, [r3, #44]
 184:Drivers/STM32G0xx_HAL_Driver/Src/stm32g0xx_hal.c **** 
  81              		.loc 1 184 3 view .LVU6
  82 000a 0022     		movs	r2, #0
  83 000c DA62     		str	r2, [r3, #44]
 186:Drivers/STM32G0xx_HAL_Driver/Src/stm32g0xx_hal.c ****   __HAL_RCC_APB2_RELEASE_RESET();
  84              		.loc 1 186 3 view .LVU7
  85 000e 1963     		str	r1, [r3, #48]
 187:Drivers/STM32G0xx_HAL_Driver/Src/stm32g0xx_hal.c **** 
  86              		.loc 1 187 3 view .LVU8
  87 0010 1A63     		str	r2, [r3, #48]
 189:Drivers/STM32G0xx_HAL_Driver/Src/stm32g0xx_hal.c ****   __HAL_RCC_AHB_RELEASE_RESET();
  88              		.loc 1 189 3 view .LVU9
  89 0012 9962     		str	r1, [r3, #40]
 190:Drivers/STM32G0xx_HAL_Driver/Src/stm32g0xx_hal.c **** 
  90              		.loc 1 190 3 view .LVU10
  91 0014 9A62     		str	r2, [r3, #40]
 192:Drivers/STM32G0xx_HAL_Driver/Src/stm32g0xx_hal.c ****   __HAL_RCC_IOP_RELEASE_RESET();
  92              		.loc 1 192 3 view .LVU11
  93 0016 5962     		str	r1, [r3, #36]
 193:Drivers/STM32G0xx_HAL_Driver/Src/stm32g0xx_hal.c **** 
  94              		.loc 1 193 3 view .LVU12
  95 0018 5A62     		str	r2, [r3, #36]
 196:Drivers/STM32G0xx_HAL_Driver/Src/stm32g0xx_hal.c **** 
  96              		.loc 1 196 3 view .LVU13
  97 001a FFF7FEFF 		bl	HAL_MspDeInit
  98              	.LVL0:
 199:Drivers/STM32G0xx_HAL_Driver/Src/stm32g0xx_hal.c **** }
  99              		.loc 1 199 3 view .LVU14
 200:Drivers/STM32G0xx_HAL_Driver/Src/stm32g0xx_hal.c **** 
 100              		.loc 1 200 1 is_stmt 0 view .LVU15
 101 001e 0020     		movs	r0, #0
 102              		@ sp needed
 103 0020 10BD     		pop	{r4, pc}
 104              	.L5:
 105 0022 C046     		.align	2
 106              	.L4:
 107 0024 00100240 		.word	1073876992
 108              		.cfi_endproc
 109              	.LFE311:
 111              		.section	.text.HAL_InitTick,"ax",%progbits
 112              		.align	1
 113              		.weak	HAL_InitTick
 114              		.syntax unified
ARM GAS  /tmp/ccxbrxtl.s 			page 7


 115              		.code	16
 116              		.thumb_func
 118              	HAL_InitTick:
 119              	.LVL1:
 120              	.LFB314:
 223:Drivers/STM32G0xx_HAL_Driver/Src/stm32g0xx_hal.c **** 
 224:Drivers/STM32G0xx_HAL_Driver/Src/stm32g0xx_hal.c **** /**
 225:Drivers/STM32G0xx_HAL_Driver/Src/stm32g0xx_hal.c ****   * @brief This function configures the source of the time base:
 226:Drivers/STM32G0xx_HAL_Driver/Src/stm32g0xx_hal.c ****   *        The time source is configured  to have 1ms time base with a dedicated
 227:Drivers/STM32G0xx_HAL_Driver/Src/stm32g0xx_hal.c ****   *        Tick interrupt priority.
 228:Drivers/STM32G0xx_HAL_Driver/Src/stm32g0xx_hal.c ****   * @note This function is called  automatically at the beginning of program after
 229:Drivers/STM32G0xx_HAL_Driver/Src/stm32g0xx_hal.c ****   *       reset by HAL_Init() or at any time when clock is reconfigured  by HAL_RCC_ClockConfig().
 230:Drivers/STM32G0xx_HAL_Driver/Src/stm32g0xx_hal.c ****   * @note In the default implementation, SysTick timer is the source of time base.
 231:Drivers/STM32G0xx_HAL_Driver/Src/stm32g0xx_hal.c ****   *       It is used to generate interrupts at regular time intervals.
 232:Drivers/STM32G0xx_HAL_Driver/Src/stm32g0xx_hal.c ****   *       Care must be taken if HAL_Delay() is called from a peripheral ISR process,
 233:Drivers/STM32G0xx_HAL_Driver/Src/stm32g0xx_hal.c ****   *       The SysTick interrupt must have higher priority (numerically lower)
 234:Drivers/STM32G0xx_HAL_Driver/Src/stm32g0xx_hal.c ****   *       than the peripheral interrupt. Otherwise the caller ISR process will be blocked.
 235:Drivers/STM32G0xx_HAL_Driver/Src/stm32g0xx_hal.c ****   *       The function is declared as __weak  to be overwritten  in case of other
 236:Drivers/STM32G0xx_HAL_Driver/Src/stm32g0xx_hal.c ****   *       implementation  in user file.
 237:Drivers/STM32G0xx_HAL_Driver/Src/stm32g0xx_hal.c ****   * @param TickPriority Tick interrupt priority.
 238:Drivers/STM32G0xx_HAL_Driver/Src/stm32g0xx_hal.c ****   * @retval HAL status
 239:Drivers/STM32G0xx_HAL_Driver/Src/stm32g0xx_hal.c ****   */
 240:Drivers/STM32G0xx_HAL_Driver/Src/stm32g0xx_hal.c **** __weak HAL_StatusTypeDef HAL_InitTick(uint32_t TickPriority)
 241:Drivers/STM32G0xx_HAL_Driver/Src/stm32g0xx_hal.c **** {
 121              		.loc 1 241 1 is_stmt 1 view -0
 122              		.cfi_startproc
 123              		@ args = 0, pretend = 0, frame = 0
 124              		@ frame_needed = 0, uses_anonymous_args = 0
 125              		.loc 1 241 1 is_stmt 0 view .LVU17
 126 0000 10B5     		push	{r4, lr}
 127              	.LCFI1:
 128              		.cfi_def_cfa_offset 8
 129              		.cfi_offset 4, -8
 130              		.cfi_offset 14, -4
 131 0002 0400     		movs	r4, r0
 242:Drivers/STM32G0xx_HAL_Driver/Src/stm32g0xx_hal.c ****   HAL_StatusTypeDef  status = HAL_OK;
 132              		.loc 1 242 3 is_stmt 1 view .LVU18
 133              	.LVL2:
 243:Drivers/STM32G0xx_HAL_Driver/Src/stm32g0xx_hal.c **** 
 244:Drivers/STM32G0xx_HAL_Driver/Src/stm32g0xx_hal.c ****   /* Check uwTickFreq for MisraC 2012 (even if uwTickFreq is a enum type that doesn't take the valu
 245:Drivers/STM32G0xx_HAL_Driver/Src/stm32g0xx_hal.c ****   if ((uint32_t)uwTickFreq != 0U)
 134              		.loc 1 245 3 view .LVU19
 135              		.loc 1 245 28 is_stmt 0 view .LVU20
 136 0004 114B     		ldr	r3, .L13
 137 0006 1978     		ldrb	r1, [r3]
 138              		.loc 1 245 6 view .LVU21
 139 0008 0029     		cmp	r1, #0
 140 000a 01D1     		bne	.L11
 246:Drivers/STM32G0xx_HAL_Driver/Src/stm32g0xx_hal.c ****   {
 247:Drivers/STM32G0xx_HAL_Driver/Src/stm32g0xx_hal.c ****     /*Configure the SysTick to have interrupt in 1ms time basis*/
 248:Drivers/STM32G0xx_HAL_Driver/Src/stm32g0xx_hal.c ****     if (HAL_SYSTICK_Config(SystemCoreClock / (1000U /(uint32_t)uwTickFreq)) == 0U)
 249:Drivers/STM32G0xx_HAL_Driver/Src/stm32g0xx_hal.c ****     {
 250:Drivers/STM32G0xx_HAL_Driver/Src/stm32g0xx_hal.c ****       /* Configure the SysTick IRQ priority */
 251:Drivers/STM32G0xx_HAL_Driver/Src/stm32g0xx_hal.c ****       if (TickPriority < (1UL << __NVIC_PRIO_BITS))
 252:Drivers/STM32G0xx_HAL_Driver/Src/stm32g0xx_hal.c ****       {
 253:Drivers/STM32G0xx_HAL_Driver/Src/stm32g0xx_hal.c ****         HAL_NVIC_SetPriority(SysTick_IRQn, TickPriority, 0U);
 254:Drivers/STM32G0xx_HAL_Driver/Src/stm32g0xx_hal.c ****         uwTickPrio = TickPriority;
ARM GAS  /tmp/ccxbrxtl.s 			page 8


 255:Drivers/STM32G0xx_HAL_Driver/Src/stm32g0xx_hal.c ****       }
 256:Drivers/STM32G0xx_HAL_Driver/Src/stm32g0xx_hal.c ****       else
 257:Drivers/STM32G0xx_HAL_Driver/Src/stm32g0xx_hal.c ****       {
 258:Drivers/STM32G0xx_HAL_Driver/Src/stm32g0xx_hal.c ****         status = HAL_ERROR;
 259:Drivers/STM32G0xx_HAL_Driver/Src/stm32g0xx_hal.c ****       }
 260:Drivers/STM32G0xx_HAL_Driver/Src/stm32g0xx_hal.c ****     }
 261:Drivers/STM32G0xx_HAL_Driver/Src/stm32g0xx_hal.c ****     else
 262:Drivers/STM32G0xx_HAL_Driver/Src/stm32g0xx_hal.c ****     {
 263:Drivers/STM32G0xx_HAL_Driver/Src/stm32g0xx_hal.c ****       status = HAL_ERROR;
 264:Drivers/STM32G0xx_HAL_Driver/Src/stm32g0xx_hal.c ****     }
 265:Drivers/STM32G0xx_HAL_Driver/Src/stm32g0xx_hal.c ****   }
 266:Drivers/STM32G0xx_HAL_Driver/Src/stm32g0xx_hal.c ****   else
 267:Drivers/STM32G0xx_HAL_Driver/Src/stm32g0xx_hal.c ****   {
 268:Drivers/STM32G0xx_HAL_Driver/Src/stm32g0xx_hal.c ****     status = HAL_ERROR;
 141              		.loc 1 268 12 view .LVU22
 142 000c 0120     		movs	r0, #1
 143              	.LVL3:
 144              	.L7:
 269:Drivers/STM32G0xx_HAL_Driver/Src/stm32g0xx_hal.c ****   }
 270:Drivers/STM32G0xx_HAL_Driver/Src/stm32g0xx_hal.c **** 
 271:Drivers/STM32G0xx_HAL_Driver/Src/stm32g0xx_hal.c ****   /* Return function status */
 272:Drivers/STM32G0xx_HAL_Driver/Src/stm32g0xx_hal.c ****   return status;
 145              		.loc 1 272 3 is_stmt 1 view .LVU23
 273:Drivers/STM32G0xx_HAL_Driver/Src/stm32g0xx_hal.c **** }
 146              		.loc 1 273 1 is_stmt 0 view .LVU24
 147              		@ sp needed
 148              	.LVL4:
 149              		.loc 1 273 1 view .LVU25
 150 000e 10BD     		pop	{r4, pc}
 151              	.LVL5:
 152              	.L11:
 248:Drivers/STM32G0xx_HAL_Driver/Src/stm32g0xx_hal.c ****     {
 153              		.loc 1 248 5 is_stmt 1 view .LVU26
 248:Drivers/STM32G0xx_HAL_Driver/Src/stm32g0xx_hal.c ****     {
 154              		.loc 1 248 53 is_stmt 0 view .LVU27
 155 0010 FA20     		movs	r0, #250
 156              	.LVL6:
 248:Drivers/STM32G0xx_HAL_Driver/Src/stm32g0xx_hal.c ****     {
 157              		.loc 1 248 53 view .LVU28
 158 0012 8000     		lsls	r0, r0, #2
 159 0014 FFF7FEFF 		bl	__aeabi_uidiv
 160              	.LVL7:
 161 0018 0100     		movs	r1, r0
 248:Drivers/STM32G0xx_HAL_Driver/Src/stm32g0xx_hal.c ****     {
 162              		.loc 1 248 9 view .LVU29
 163 001a 0D4B     		ldr	r3, .L13+4
 164 001c 1868     		ldr	r0, [r3]
 165 001e FFF7FEFF 		bl	__aeabi_uidiv
 166              	.LVL8:
 167 0022 FFF7FEFF 		bl	HAL_SYSTICK_Config
 168              	.LVL9:
 248:Drivers/STM32G0xx_HAL_Driver/Src/stm32g0xx_hal.c ****     {
 169              		.loc 1 248 8 discriminator 1 view .LVU30
 170 0026 0028     		cmp	r0, #0
 171 0028 0DD1     		bne	.L9
 251:Drivers/STM32G0xx_HAL_Driver/Src/stm32g0xx_hal.c ****       {
 172              		.loc 1 251 7 is_stmt 1 view .LVU31
ARM GAS  /tmp/ccxbrxtl.s 			page 9


 251:Drivers/STM32G0xx_HAL_Driver/Src/stm32g0xx_hal.c ****       {
 173              		.loc 1 251 10 is_stmt 0 view .LVU32
 174 002a 032C     		cmp	r4, #3
 175 002c 01D9     		bls	.L12
 258:Drivers/STM32G0xx_HAL_Driver/Src/stm32g0xx_hal.c ****       }
 176              		.loc 1 258 16 view .LVU33
 177 002e 0120     		movs	r0, #1
 178 0030 EDE7     		b	.L7
 179              	.L12:
 253:Drivers/STM32G0xx_HAL_Driver/Src/stm32g0xx_hal.c ****         uwTickPrio = TickPriority;
 180              		.loc 1 253 9 is_stmt 1 view .LVU34
 181 0032 0130     		adds	r0, r0, #1
 182 0034 0022     		movs	r2, #0
 183 0036 2100     		movs	r1, r4
 184 0038 4042     		rsbs	r0, r0, #0
 185 003a FFF7FEFF 		bl	HAL_NVIC_SetPriority
 186              	.LVL10:
 254:Drivers/STM32G0xx_HAL_Driver/Src/stm32g0xx_hal.c ****       }
 187              		.loc 1 254 9 view .LVU35
 254:Drivers/STM32G0xx_HAL_Driver/Src/stm32g0xx_hal.c ****       }
 188              		.loc 1 254 20 is_stmt 0 view .LVU36
 189 003e 054B     		ldr	r3, .L13+8
 190 0040 1C60     		str	r4, [r3]
 242:Drivers/STM32G0xx_HAL_Driver/Src/stm32g0xx_hal.c **** 
 191              		.loc 1 242 22 view .LVU37
 192 0042 0020     		movs	r0, #0
 193 0044 E3E7     		b	.L7
 194              	.L9:
 263:Drivers/STM32G0xx_HAL_Driver/Src/stm32g0xx_hal.c ****     }
 195              		.loc 1 263 14 view .LVU38
 196 0046 0120     		movs	r0, #1
 197 0048 E1E7     		b	.L7
 198              	.L14:
 199 004a C046     		.align	2
 200              	.L13:
 201 004c 00000000 		.word	uwTickFreq
 202 0050 00000000 		.word	SystemCoreClock
 203 0054 00000000 		.word	uwTickPrio
 204              		.cfi_endproc
 205              	.LFE314:
 207              		.section	.text.HAL_Init,"ax",%progbits
 208              		.align	1
 209              		.global	HAL_Init
 210              		.syntax unified
 211              		.code	16
 212              		.thumb_func
 214              	HAL_Init:
 215              	.LFB310:
 144:Drivers/STM32G0xx_HAL_Driver/Src/stm32g0xx_hal.c ****   HAL_StatusTypeDef  status = HAL_OK;
 216              		.loc 1 144 1 is_stmt 1 view -0
 217              		.cfi_startproc
 218              		@ args = 0, pretend = 0, frame = 0
 219              		@ frame_needed = 0, uses_anonymous_args = 0
 220 0000 10B5     		push	{r4, lr}
 221              	.LCFI2:
 222              		.cfi_def_cfa_offset 8
 223              		.cfi_offset 4, -8
ARM GAS  /tmp/ccxbrxtl.s 			page 10


 224              		.cfi_offset 14, -4
 145:Drivers/STM32G0xx_HAL_Driver/Src/stm32g0xx_hal.c **** 
 225              		.loc 1 145 3 view .LVU40
 226              	.LVL11:
 157:Drivers/STM32G0xx_HAL_Driver/Src/stm32g0xx_hal.c **** #endif /* PREFETCH_ENABLE */
 227              		.loc 1 157 3 view .LVU41
 228 0002 084A     		ldr	r2, .L19
 229 0004 1168     		ldr	r1, [r2]
 230 0006 8023     		movs	r3, #128
 231 0008 5B00     		lsls	r3, r3, #1
 232 000a 0B43     		orrs	r3, r1
 233 000c 1360     		str	r3, [r2]
 161:Drivers/STM32G0xx_HAL_Driver/Src/stm32g0xx_hal.c ****   {
 234              		.loc 1 161 3 view .LVU42
 161:Drivers/STM32G0xx_HAL_Driver/Src/stm32g0xx_hal.c ****   {
 235              		.loc 1 161 7 is_stmt 0 view .LVU43
 236 000e 0320     		movs	r0, #3
 237 0010 FFF7FEFF 		bl	HAL_InitTick
 238              	.LVL12:
 239 0014 041E     		subs	r4, r0, #0
 161:Drivers/STM32G0xx_HAL_Driver/Src/stm32g0xx_hal.c ****   {
 240              		.loc 1 161 6 discriminator 1 view .LVU44
 241 0016 02D0     		beq	.L18
 163:Drivers/STM32G0xx_HAL_Driver/Src/stm32g0xx_hal.c ****   }
 242              		.loc 1 163 12 view .LVU45
 243 0018 0124     		movs	r4, #1
 244              	.L16:
 245              	.LVL13:
 172:Drivers/STM32G0xx_HAL_Driver/Src/stm32g0xx_hal.c **** }
 246              		.loc 1 172 3 is_stmt 1 view .LVU46
 173:Drivers/STM32G0xx_HAL_Driver/Src/stm32g0xx_hal.c **** 
 247              		.loc 1 173 1 is_stmt 0 view .LVU47
 248 001a 2000     		movs	r0, r4
 249              		@ sp needed
 250              	.LVL14:
 173:Drivers/STM32G0xx_HAL_Driver/Src/stm32g0xx_hal.c **** 
 251              		.loc 1 173 1 view .LVU48
 252 001c 10BD     		pop	{r4, pc}
 253              	.LVL15:
 254              	.L18:
 168:Drivers/STM32G0xx_HAL_Driver/Src/stm32g0xx_hal.c ****   }
 255              		.loc 1 168 3 is_stmt 1 view .LVU49
 256 001e FFF7FEFF 		bl	HAL_MspInit
 257              	.LVL16:
 258 0022 FAE7     		b	.L16
 259              	.L20:
 260              		.align	2
 261              	.L19:
 262 0024 00200240 		.word	1073881088
 263              		.cfi_endproc
 264              	.LFE310:
 266              		.section	.text.HAL_IncTick,"ax",%progbits
 267              		.align	1
 268              		.weak	HAL_IncTick
 269              		.syntax unified
 270              		.code	16
 271              		.thumb_func
ARM GAS  /tmp/ccxbrxtl.s 			page 11


 273              	HAL_IncTick:
 274              	.LFB315:
 274:Drivers/STM32G0xx_HAL_Driver/Src/stm32g0xx_hal.c **** 
 275:Drivers/STM32G0xx_HAL_Driver/Src/stm32g0xx_hal.c **** /**
 276:Drivers/STM32G0xx_HAL_Driver/Src/stm32g0xx_hal.c ****   * @}
 277:Drivers/STM32G0xx_HAL_Driver/Src/stm32g0xx_hal.c ****   */
 278:Drivers/STM32G0xx_HAL_Driver/Src/stm32g0xx_hal.c **** 
 279:Drivers/STM32G0xx_HAL_Driver/Src/stm32g0xx_hal.c **** /** @addtogroup HAL_Exported_Functions_Group2
 280:Drivers/STM32G0xx_HAL_Driver/Src/stm32g0xx_hal.c ****  *  @brief    HAL Control functions
 281:Drivers/STM32G0xx_HAL_Driver/Src/stm32g0xx_hal.c ****  *
 282:Drivers/STM32G0xx_HAL_Driver/Src/stm32g0xx_hal.c **** @verbatim
 283:Drivers/STM32G0xx_HAL_Driver/Src/stm32g0xx_hal.c ****  ===============================================================================
 284:Drivers/STM32G0xx_HAL_Driver/Src/stm32g0xx_hal.c ****                       ##### HAL Control functions #####
 285:Drivers/STM32G0xx_HAL_Driver/Src/stm32g0xx_hal.c ****  ===============================================================================
 286:Drivers/STM32G0xx_HAL_Driver/Src/stm32g0xx_hal.c ****     [..]  This section provides functions allowing to:
 287:Drivers/STM32G0xx_HAL_Driver/Src/stm32g0xx_hal.c ****       (+) Provide a tick value in millisecond
 288:Drivers/STM32G0xx_HAL_Driver/Src/stm32g0xx_hal.c ****       (+) Provide a blocking delay in millisecond
 289:Drivers/STM32G0xx_HAL_Driver/Src/stm32g0xx_hal.c ****       (+) Suspend the time base source interrupt
 290:Drivers/STM32G0xx_HAL_Driver/Src/stm32g0xx_hal.c ****       (+) Resume the time base source interrupt
 291:Drivers/STM32G0xx_HAL_Driver/Src/stm32g0xx_hal.c ****       (+) Get the HAL API driver version
 292:Drivers/STM32G0xx_HAL_Driver/Src/stm32g0xx_hal.c ****       (+) Get the device identifier
 293:Drivers/STM32G0xx_HAL_Driver/Src/stm32g0xx_hal.c ****       (+) Get the device revision identifier
 294:Drivers/STM32G0xx_HAL_Driver/Src/stm32g0xx_hal.c **** 
 295:Drivers/STM32G0xx_HAL_Driver/Src/stm32g0xx_hal.c **** @endverbatim
 296:Drivers/STM32G0xx_HAL_Driver/Src/stm32g0xx_hal.c ****   * @{
 297:Drivers/STM32G0xx_HAL_Driver/Src/stm32g0xx_hal.c ****   */
 298:Drivers/STM32G0xx_HAL_Driver/Src/stm32g0xx_hal.c **** 
 299:Drivers/STM32G0xx_HAL_Driver/Src/stm32g0xx_hal.c **** /**
 300:Drivers/STM32G0xx_HAL_Driver/Src/stm32g0xx_hal.c ****   * @brief This function is called to increment  a global variable "uwTick"
 301:Drivers/STM32G0xx_HAL_Driver/Src/stm32g0xx_hal.c ****   *        used as application time base.
 302:Drivers/STM32G0xx_HAL_Driver/Src/stm32g0xx_hal.c ****   * @note In the default implementation, this variable is incremented each 1ms
 303:Drivers/STM32G0xx_HAL_Driver/Src/stm32g0xx_hal.c ****   *       in SysTick ISR.
 304:Drivers/STM32G0xx_HAL_Driver/Src/stm32g0xx_hal.c ****   * @note This function is declared as __weak to be overwritten in case of other
 305:Drivers/STM32G0xx_HAL_Driver/Src/stm32g0xx_hal.c ****   *      implementations in user file.
 306:Drivers/STM32G0xx_HAL_Driver/Src/stm32g0xx_hal.c ****   * @retval None
 307:Drivers/STM32G0xx_HAL_Driver/Src/stm32g0xx_hal.c ****   */
 308:Drivers/STM32G0xx_HAL_Driver/Src/stm32g0xx_hal.c **** __weak void HAL_IncTick(void)
 309:Drivers/STM32G0xx_HAL_Driver/Src/stm32g0xx_hal.c **** {
 275              		.loc 1 309 1 view -0
 276              		.cfi_startproc
 277              		@ args = 0, pretend = 0, frame = 0
 278              		@ frame_needed = 0, uses_anonymous_args = 0
 279              		@ link register save eliminated.
 310:Drivers/STM32G0xx_HAL_Driver/Src/stm32g0xx_hal.c ****   uwTick += (uint32_t)uwTickFreq;
 280              		.loc 1 310 3 view .LVU51
 281              		.loc 1 310 13 is_stmt 0 view .LVU52
 282 0000 034B     		ldr	r3, .L22
 283 0002 1B78     		ldrb	r3, [r3]
 284              		.loc 1 310 10 view .LVU53
 285 0004 034A     		ldr	r2, .L22+4
 286 0006 1168     		ldr	r1, [r2]
 287 0008 5B18     		adds	r3, r3, r1
 288 000a 1360     		str	r3, [r2]
 311:Drivers/STM32G0xx_HAL_Driver/Src/stm32g0xx_hal.c **** }
 289              		.loc 1 311 1 view .LVU54
 290              		@ sp needed
 291 000c 7047     		bx	lr
ARM GAS  /tmp/ccxbrxtl.s 			page 12


 292              	.L23:
 293 000e C046     		.align	2
 294              	.L22:
 295 0010 00000000 		.word	uwTickFreq
 296 0014 00000000 		.word	uwTick
 297              		.cfi_endproc
 298              	.LFE315:
 300              		.section	.text.HAL_GetTick,"ax",%progbits
 301              		.align	1
 302              		.weak	HAL_GetTick
 303              		.syntax unified
 304              		.code	16
 305              		.thumb_func
 307              	HAL_GetTick:
 308              	.LFB316:
 312:Drivers/STM32G0xx_HAL_Driver/Src/stm32g0xx_hal.c **** 
 313:Drivers/STM32G0xx_HAL_Driver/Src/stm32g0xx_hal.c **** /**
 314:Drivers/STM32G0xx_HAL_Driver/Src/stm32g0xx_hal.c ****   * @brief Provides a tick value in millisecond.
 315:Drivers/STM32G0xx_HAL_Driver/Src/stm32g0xx_hal.c ****   * @note This function is declared as __weak to be overwritten in case of other
 316:Drivers/STM32G0xx_HAL_Driver/Src/stm32g0xx_hal.c ****   *       implementations in user file.
 317:Drivers/STM32G0xx_HAL_Driver/Src/stm32g0xx_hal.c ****   * @retval tick value
 318:Drivers/STM32G0xx_HAL_Driver/Src/stm32g0xx_hal.c ****   */
 319:Drivers/STM32G0xx_HAL_Driver/Src/stm32g0xx_hal.c **** __weak uint32_t HAL_GetTick(void)
 320:Drivers/STM32G0xx_HAL_Driver/Src/stm32g0xx_hal.c **** {
 309              		.loc 1 320 1 is_stmt 1 view -0
 310              		.cfi_startproc
 311              		@ args = 0, pretend = 0, frame = 0
 312              		@ frame_needed = 0, uses_anonymous_args = 0
 313              		@ link register save eliminated.
 321:Drivers/STM32G0xx_HAL_Driver/Src/stm32g0xx_hal.c ****   return uwTick;
 314              		.loc 1 321 3 view .LVU56
 315              		.loc 1 321 10 is_stmt 0 view .LVU57
 316 0000 014B     		ldr	r3, .L25
 317 0002 1868     		ldr	r0, [r3]
 322:Drivers/STM32G0xx_HAL_Driver/Src/stm32g0xx_hal.c **** }
 318              		.loc 1 322 1 view .LVU58
 319              		@ sp needed
 320 0004 7047     		bx	lr
 321              	.L26:
 322 0006 C046     		.align	2
 323              	.L25:
 324 0008 00000000 		.word	uwTick
 325              		.cfi_endproc
 326              	.LFE316:
 328              		.section	.text.HAL_GetTickPrio,"ax",%progbits
 329              		.align	1
 330              		.global	HAL_GetTickPrio
 331              		.syntax unified
 332              		.code	16
 333              		.thumb_func
 335              	HAL_GetTickPrio:
 336              	.LFB317:
 323:Drivers/STM32G0xx_HAL_Driver/Src/stm32g0xx_hal.c **** 
 324:Drivers/STM32G0xx_HAL_Driver/Src/stm32g0xx_hal.c **** /**
 325:Drivers/STM32G0xx_HAL_Driver/Src/stm32g0xx_hal.c ****   * @brief This function returns a tick priority.
 326:Drivers/STM32G0xx_HAL_Driver/Src/stm32g0xx_hal.c ****   * @retval tick priority
 327:Drivers/STM32G0xx_HAL_Driver/Src/stm32g0xx_hal.c ****   */
ARM GAS  /tmp/ccxbrxtl.s 			page 13


 328:Drivers/STM32G0xx_HAL_Driver/Src/stm32g0xx_hal.c **** uint32_t HAL_GetTickPrio(void)
 329:Drivers/STM32G0xx_HAL_Driver/Src/stm32g0xx_hal.c **** {
 337              		.loc 1 329 1 is_stmt 1 view -0
 338              		.cfi_startproc
 339              		@ args = 0, pretend = 0, frame = 0
 340              		@ frame_needed = 0, uses_anonymous_args = 0
 341              		@ link register save eliminated.
 330:Drivers/STM32G0xx_HAL_Driver/Src/stm32g0xx_hal.c ****   return uwTickPrio;
 342              		.loc 1 330 3 view .LVU60
 343              		.loc 1 330 10 is_stmt 0 view .LVU61
 344 0000 014B     		ldr	r3, .L28
 345              		.loc 1 330 10 discriminator 1 view .LVU62
 346 0002 1868     		ldr	r0, [r3]
 331:Drivers/STM32G0xx_HAL_Driver/Src/stm32g0xx_hal.c **** }
 347              		.loc 1 331 1 view .LVU63
 348              		@ sp needed
 349 0004 7047     		bx	lr
 350              	.L29:
 351 0006 C046     		.align	2
 352              	.L28:
 353 0008 00000000 		.word	uwTickPrio
 354              		.cfi_endproc
 355              	.LFE317:
 357              		.section	.text.HAL_SetTickFreq,"ax",%progbits
 358              		.align	1
 359              		.global	HAL_SetTickFreq
 360              		.syntax unified
 361              		.code	16
 362              		.thumb_func
 364              	HAL_SetTickFreq:
 365              	.LVL17:
 366              	.LFB318:
 332:Drivers/STM32G0xx_HAL_Driver/Src/stm32g0xx_hal.c **** 
 333:Drivers/STM32G0xx_HAL_Driver/Src/stm32g0xx_hal.c **** /**
 334:Drivers/STM32G0xx_HAL_Driver/Src/stm32g0xx_hal.c ****   * @brief Set new tick Freq.
 335:Drivers/STM32G0xx_HAL_Driver/Src/stm32g0xx_hal.c ****   * @retval status
 336:Drivers/STM32G0xx_HAL_Driver/Src/stm32g0xx_hal.c ****   */
 337:Drivers/STM32G0xx_HAL_Driver/Src/stm32g0xx_hal.c **** HAL_StatusTypeDef HAL_SetTickFreq(HAL_TickFreqTypeDef Freq)
 338:Drivers/STM32G0xx_HAL_Driver/Src/stm32g0xx_hal.c **** {
 367              		.loc 1 338 1 is_stmt 1 view -0
 368              		.cfi_startproc
 369              		@ args = 0, pretend = 0, frame = 0
 370              		@ frame_needed = 0, uses_anonymous_args = 0
 371              		.loc 1 338 1 is_stmt 0 view .LVU65
 372 0000 10B5     		push	{r4, lr}
 373              	.LCFI3:
 374              		.cfi_def_cfa_offset 8
 375              		.cfi_offset 4, -8
 376              		.cfi_offset 14, -4
 339:Drivers/STM32G0xx_HAL_Driver/Src/stm32g0xx_hal.c ****   HAL_StatusTypeDef status  = HAL_OK;
 377              		.loc 1 339 3 is_stmt 1 view .LVU66
 378              	.LVL18:
 340:Drivers/STM32G0xx_HAL_Driver/Src/stm32g0xx_hal.c ****   HAL_TickFreqTypeDef prevTickFreq;
 379              		.loc 1 340 3 view .LVU67
 341:Drivers/STM32G0xx_HAL_Driver/Src/stm32g0xx_hal.c ****   assert_param(IS_TICKFREQ(Freq));
 380              		.loc 1 341 3 view .LVU68
 342:Drivers/STM32G0xx_HAL_Driver/Src/stm32g0xx_hal.c **** 
ARM GAS  /tmp/ccxbrxtl.s 			page 14


 343:Drivers/STM32G0xx_HAL_Driver/Src/stm32g0xx_hal.c ****   if (uwTickFreq != Freq)
 381              		.loc 1 343 3 view .LVU69
 382              		.loc 1 343 18 is_stmt 0 view .LVU70
 383 0002 084B     		ldr	r3, .L34
 384 0004 1C78     		ldrb	r4, [r3]
 385              		.loc 1 343 6 view .LVU71
 386 0006 8442     		cmp	r4, r0
 387 0008 01D1     		bne	.L33
 339:Drivers/STM32G0xx_HAL_Driver/Src/stm32g0xx_hal.c ****   HAL_TickFreqTypeDef prevTickFreq;
 388              		.loc 1 339 21 view .LVU72
 389 000a 0020     		movs	r0, #0
 390              	.LVL19:
 391              	.L31:
 344:Drivers/STM32G0xx_HAL_Driver/Src/stm32g0xx_hal.c ****   {
 345:Drivers/STM32G0xx_HAL_Driver/Src/stm32g0xx_hal.c ****     /* Back up uwTickFreq frequency */
 346:Drivers/STM32G0xx_HAL_Driver/Src/stm32g0xx_hal.c ****     prevTickFreq = uwTickFreq;
 347:Drivers/STM32G0xx_HAL_Driver/Src/stm32g0xx_hal.c **** 
 348:Drivers/STM32G0xx_HAL_Driver/Src/stm32g0xx_hal.c ****     /* Update uwTickFreq global variable used by HAL_InitTick() */
 349:Drivers/STM32G0xx_HAL_Driver/Src/stm32g0xx_hal.c ****     uwTickFreq = Freq;
 350:Drivers/STM32G0xx_HAL_Driver/Src/stm32g0xx_hal.c **** 
 351:Drivers/STM32G0xx_HAL_Driver/Src/stm32g0xx_hal.c ****     /* Apply the new tick Freq  */
 352:Drivers/STM32G0xx_HAL_Driver/Src/stm32g0xx_hal.c ****     status = HAL_InitTick(uwTickPrio);
 353:Drivers/STM32G0xx_HAL_Driver/Src/stm32g0xx_hal.c ****     if (status != HAL_OK)
 354:Drivers/STM32G0xx_HAL_Driver/Src/stm32g0xx_hal.c ****     {
 355:Drivers/STM32G0xx_HAL_Driver/Src/stm32g0xx_hal.c ****       /* Restore previous tick frequency */
 356:Drivers/STM32G0xx_HAL_Driver/Src/stm32g0xx_hal.c ****       uwTickFreq = prevTickFreq;
 357:Drivers/STM32G0xx_HAL_Driver/Src/stm32g0xx_hal.c ****     }
 358:Drivers/STM32G0xx_HAL_Driver/Src/stm32g0xx_hal.c ****   }
 359:Drivers/STM32G0xx_HAL_Driver/Src/stm32g0xx_hal.c **** 
 360:Drivers/STM32G0xx_HAL_Driver/Src/stm32g0xx_hal.c ****   return status;
 392              		.loc 1 360 3 is_stmt 1 view .LVU73
 361:Drivers/STM32G0xx_HAL_Driver/Src/stm32g0xx_hal.c **** }
 393              		.loc 1 361 1 is_stmt 0 view .LVU74
 394              		@ sp needed
 395 000c 10BD     		pop	{r4, pc}
 396              	.LVL20:
 397              	.L33:
 346:Drivers/STM32G0xx_HAL_Driver/Src/stm32g0xx_hal.c **** 
 398              		.loc 1 346 5 is_stmt 1 view .LVU75
 349:Drivers/STM32G0xx_HAL_Driver/Src/stm32g0xx_hal.c **** 
 399              		.loc 1 349 5 view .LVU76
 349:Drivers/STM32G0xx_HAL_Driver/Src/stm32g0xx_hal.c **** 
 400              		.loc 1 349 16 is_stmt 0 view .LVU77
 401 000e 1870     		strb	r0, [r3]
 352:Drivers/STM32G0xx_HAL_Driver/Src/stm32g0xx_hal.c ****     if (status != HAL_OK)
 402              		.loc 1 352 5 is_stmt 1 view .LVU78
 352:Drivers/STM32G0xx_HAL_Driver/Src/stm32g0xx_hal.c ****     if (status != HAL_OK)
 403              		.loc 1 352 14 is_stmt 0 view .LVU79
 404 0010 054B     		ldr	r3, .L34+4
 405 0012 1868     		ldr	r0, [r3]
 406              	.LVL21:
 352:Drivers/STM32G0xx_HAL_Driver/Src/stm32g0xx_hal.c ****     if (status != HAL_OK)
 407              		.loc 1 352 14 view .LVU80
 408 0014 FFF7FEFF 		bl	HAL_InitTick
 409              	.LVL22:
 353:Drivers/STM32G0xx_HAL_Driver/Src/stm32g0xx_hal.c ****     {
 410              		.loc 1 353 5 is_stmt 1 view .LVU81
ARM GAS  /tmp/ccxbrxtl.s 			page 15


 353:Drivers/STM32G0xx_HAL_Driver/Src/stm32g0xx_hal.c ****     {
 411              		.loc 1 353 8 is_stmt 0 view .LVU82
 412 0018 0028     		cmp	r0, #0
 413 001a F7D0     		beq	.L31
 356:Drivers/STM32G0xx_HAL_Driver/Src/stm32g0xx_hal.c ****     }
 414              		.loc 1 356 7 is_stmt 1 view .LVU83
 356:Drivers/STM32G0xx_HAL_Driver/Src/stm32g0xx_hal.c ****     }
 415              		.loc 1 356 18 is_stmt 0 view .LVU84
 416 001c 014B     		ldr	r3, .L34
 417 001e 1C70     		strb	r4, [r3]
 418 0020 F4E7     		b	.L31
 419              	.L35:
 420 0022 C046     		.align	2
 421              	.L34:
 422 0024 00000000 		.word	uwTickFreq
 423 0028 00000000 		.word	uwTickPrio
 424              		.cfi_endproc
 425              	.LFE318:
 427              		.section	.text.HAL_GetTickFreq,"ax",%progbits
 428              		.align	1
 429              		.global	HAL_GetTickFreq
 430              		.syntax unified
 431              		.code	16
 432              		.thumb_func
 434              	HAL_GetTickFreq:
 435              	.LFB319:
 362:Drivers/STM32G0xx_HAL_Driver/Src/stm32g0xx_hal.c **** 
 363:Drivers/STM32G0xx_HAL_Driver/Src/stm32g0xx_hal.c **** /**
 364:Drivers/STM32G0xx_HAL_Driver/Src/stm32g0xx_hal.c ****   * @brief return tick frequency.
 365:Drivers/STM32G0xx_HAL_Driver/Src/stm32g0xx_hal.c ****   * @retval Tick frequency.
 366:Drivers/STM32G0xx_HAL_Driver/Src/stm32g0xx_hal.c ****   *         Value of @ref HAL_TickFreqTypeDef.
 367:Drivers/STM32G0xx_HAL_Driver/Src/stm32g0xx_hal.c ****   */
 368:Drivers/STM32G0xx_HAL_Driver/Src/stm32g0xx_hal.c **** HAL_TickFreqTypeDef HAL_GetTickFreq(void)
 369:Drivers/STM32G0xx_HAL_Driver/Src/stm32g0xx_hal.c **** {
 436              		.loc 1 369 1 is_stmt 1 view -0
 437              		.cfi_startproc
 438              		@ args = 0, pretend = 0, frame = 0
 439              		@ frame_needed = 0, uses_anonymous_args = 0
 440              		@ link register save eliminated.
 370:Drivers/STM32G0xx_HAL_Driver/Src/stm32g0xx_hal.c ****   return uwTickFreq;
 441              		.loc 1 370 3 view .LVU86
 442              		.loc 1 370 10 is_stmt 0 view .LVU87
 443 0000 014B     		ldr	r3, .L37
 444              		.loc 1 370 10 discriminator 1 view .LVU88
 445 0002 1878     		ldrb	r0, [r3]
 371:Drivers/STM32G0xx_HAL_Driver/Src/stm32g0xx_hal.c **** }
 446              		.loc 1 371 1 view .LVU89
 447              		@ sp needed
 448 0004 7047     		bx	lr
 449              	.L38:
 450 0006 C046     		.align	2
 451              	.L37:
 452 0008 00000000 		.word	uwTickFreq
 453              		.cfi_endproc
 454              	.LFE319:
 456              		.section	.text.HAL_Delay,"ax",%progbits
 457              		.align	1
ARM GAS  /tmp/ccxbrxtl.s 			page 16


 458              		.weak	HAL_Delay
 459              		.syntax unified
 460              		.code	16
 461              		.thumb_func
 463              	HAL_Delay:
 464              	.LVL23:
 465              	.LFB320:
 372:Drivers/STM32G0xx_HAL_Driver/Src/stm32g0xx_hal.c **** 
 373:Drivers/STM32G0xx_HAL_Driver/Src/stm32g0xx_hal.c **** /**
 374:Drivers/STM32G0xx_HAL_Driver/Src/stm32g0xx_hal.c ****   * @brief This function provides minimum delay (in milliseconds) based
 375:Drivers/STM32G0xx_HAL_Driver/Src/stm32g0xx_hal.c ****   *        on variable incremented.
 376:Drivers/STM32G0xx_HAL_Driver/Src/stm32g0xx_hal.c ****   * @note In the default implementation , SysTick timer is the source of time base.
 377:Drivers/STM32G0xx_HAL_Driver/Src/stm32g0xx_hal.c ****   *       It is used to generate interrupts at regular time intervals where uwTick
 378:Drivers/STM32G0xx_HAL_Driver/Src/stm32g0xx_hal.c ****   *       is incremented.
 379:Drivers/STM32G0xx_HAL_Driver/Src/stm32g0xx_hal.c ****   * @note This function is declared as __weak to be overwritten in case of other
 380:Drivers/STM32G0xx_HAL_Driver/Src/stm32g0xx_hal.c ****   *       implementations in user file.
 381:Drivers/STM32G0xx_HAL_Driver/Src/stm32g0xx_hal.c ****   * @param Delay  specifies the delay time length, in milliseconds.
 382:Drivers/STM32G0xx_HAL_Driver/Src/stm32g0xx_hal.c ****   * @retval None
 383:Drivers/STM32G0xx_HAL_Driver/Src/stm32g0xx_hal.c ****   */
 384:Drivers/STM32G0xx_HAL_Driver/Src/stm32g0xx_hal.c **** __weak void HAL_Delay(uint32_t Delay)
 385:Drivers/STM32G0xx_HAL_Driver/Src/stm32g0xx_hal.c **** {
 466              		.loc 1 385 1 is_stmt 1 view -0
 467              		.cfi_startproc
 468              		@ args = 0, pretend = 0, frame = 0
 469              		@ frame_needed = 0, uses_anonymous_args = 0
 470              		.loc 1 385 1 is_stmt 0 view .LVU91
 471 0000 70B5     		push	{r4, r5, r6, lr}
 472              	.LCFI4:
 473              		.cfi_def_cfa_offset 16
 474              		.cfi_offset 4, -16
 475              		.cfi_offset 5, -12
 476              		.cfi_offset 6, -8
 477              		.cfi_offset 14, -4
 478 0002 0400     		movs	r4, r0
 386:Drivers/STM32G0xx_HAL_Driver/Src/stm32g0xx_hal.c ****   uint32_t tickstart = HAL_GetTick();
 479              		.loc 1 386 3 is_stmt 1 view .LVU92
 480              		.loc 1 386 24 is_stmt 0 view .LVU93
 481 0004 FFF7FEFF 		bl	HAL_GetTick
 482              	.LVL24:
 483              		.loc 1 386 24 view .LVU94
 484 0008 0500     		movs	r5, r0
 485              	.LVL25:
 387:Drivers/STM32G0xx_HAL_Driver/Src/stm32g0xx_hal.c ****   uint32_t wait = Delay;
 486              		.loc 1 387 3 is_stmt 1 view .LVU95
 388:Drivers/STM32G0xx_HAL_Driver/Src/stm32g0xx_hal.c **** 
 389:Drivers/STM32G0xx_HAL_Driver/Src/stm32g0xx_hal.c ****   /* Add a freq to guarantee minimum wait */
 390:Drivers/STM32G0xx_HAL_Driver/Src/stm32g0xx_hal.c ****   if (wait < HAL_MAX_DELAY)
 487              		.loc 1 390 3 view .LVU96
 488              		.loc 1 390 6 is_stmt 0 view .LVU97
 489 000a 631C     		adds	r3, r4, #1
 490 000c 02D0     		beq	.L41
 391:Drivers/STM32G0xx_HAL_Driver/Src/stm32g0xx_hal.c ****   {
 392:Drivers/STM32G0xx_HAL_Driver/Src/stm32g0xx_hal.c ****     wait += (uint32_t)(uwTickFreq);
 491              		.loc 1 392 5 is_stmt 1 view .LVU98
 492              		.loc 1 392 13 is_stmt 0 view .LVU99
 493 000e 044B     		ldr	r3, .L43
 494 0010 1B78     		ldrb	r3, [r3]
ARM GAS  /tmp/ccxbrxtl.s 			page 17


 495              		.loc 1 392 10 view .LVU100
 496 0012 E418     		adds	r4, r4, r3
 497              	.LVL26:
 498              	.L41:
 393:Drivers/STM32G0xx_HAL_Driver/Src/stm32g0xx_hal.c ****   }
 394:Drivers/STM32G0xx_HAL_Driver/Src/stm32g0xx_hal.c **** 
 395:Drivers/STM32G0xx_HAL_Driver/Src/stm32g0xx_hal.c ****   while ((HAL_GetTick() - tickstart) < wait)
 396:Drivers/STM32G0xx_HAL_Driver/Src/stm32g0xx_hal.c ****   {
 397:Drivers/STM32G0xx_HAL_Driver/Src/stm32g0xx_hal.c ****   }
 499              		.loc 1 397 3 is_stmt 1 view .LVU101
 395:Drivers/STM32G0xx_HAL_Driver/Src/stm32g0xx_hal.c ****   {
 500              		.loc 1 395 38 discriminator 1 view .LVU102
 395:Drivers/STM32G0xx_HAL_Driver/Src/stm32g0xx_hal.c ****   {
 501              		.loc 1 395 11 is_stmt 0 discriminator 1 view .LVU103
 502 0014 FFF7FEFF 		bl	HAL_GetTick
 503              	.LVL27:
 395:Drivers/STM32G0xx_HAL_Driver/Src/stm32g0xx_hal.c ****   {
 504              		.loc 1 395 25 discriminator 1 view .LVU104
 505 0018 401B     		subs	r0, r0, r5
 395:Drivers/STM32G0xx_HAL_Driver/Src/stm32g0xx_hal.c ****   {
 506              		.loc 1 395 38 discriminator 1 view .LVU105
 507 001a A042     		cmp	r0, r4
 508 001c FAD3     		bcc	.L41
 398:Drivers/STM32G0xx_HAL_Driver/Src/stm32g0xx_hal.c **** }
 509              		.loc 1 398 1 view .LVU106
 510              		@ sp needed
 511              	.LVL28:
 512              	.LVL29:
 513              		.loc 1 398 1 view .LVU107
 514 001e 70BD     		pop	{r4, r5, r6, pc}
 515              	.L44:
 516              		.align	2
 517              	.L43:
 518 0020 00000000 		.word	uwTickFreq
 519              		.cfi_endproc
 520              	.LFE320:
 522              		.section	.text.HAL_SuspendTick,"ax",%progbits
 523              		.align	1
 524              		.weak	HAL_SuspendTick
 525              		.syntax unified
 526              		.code	16
 527              		.thumb_func
 529              	HAL_SuspendTick:
 530              	.LFB321:
 399:Drivers/STM32G0xx_HAL_Driver/Src/stm32g0xx_hal.c **** 
 400:Drivers/STM32G0xx_HAL_Driver/Src/stm32g0xx_hal.c **** /**
 401:Drivers/STM32G0xx_HAL_Driver/Src/stm32g0xx_hal.c ****   * @brief Suspend Tick increment.
 402:Drivers/STM32G0xx_HAL_Driver/Src/stm32g0xx_hal.c ****   * @note In the default implementation , SysTick timer is the source of time base. It is
 403:Drivers/STM32G0xx_HAL_Driver/Src/stm32g0xx_hal.c ****   *       used to generate interrupts at regular time intervals. Once HAL_SuspendTick()
 404:Drivers/STM32G0xx_HAL_Driver/Src/stm32g0xx_hal.c ****   *       is called, the SysTick interrupt will be disabled and so Tick increment
 405:Drivers/STM32G0xx_HAL_Driver/Src/stm32g0xx_hal.c ****   *       is suspended.
 406:Drivers/STM32G0xx_HAL_Driver/Src/stm32g0xx_hal.c ****   * @note This function is declared as __weak to be overwritten in case of other
 407:Drivers/STM32G0xx_HAL_Driver/Src/stm32g0xx_hal.c ****   *       implementations in user file.
 408:Drivers/STM32G0xx_HAL_Driver/Src/stm32g0xx_hal.c ****   * @retval None
 409:Drivers/STM32G0xx_HAL_Driver/Src/stm32g0xx_hal.c ****   */
 410:Drivers/STM32G0xx_HAL_Driver/Src/stm32g0xx_hal.c **** __weak void HAL_SuspendTick(void)
 411:Drivers/STM32G0xx_HAL_Driver/Src/stm32g0xx_hal.c **** {
ARM GAS  /tmp/ccxbrxtl.s 			page 18


 531              		.loc 1 411 1 is_stmt 1 view -0
 532              		.cfi_startproc
 533              		@ args = 0, pretend = 0, frame = 0
 534              		@ frame_needed = 0, uses_anonymous_args = 0
 535              		@ link register save eliminated.
 412:Drivers/STM32G0xx_HAL_Driver/Src/stm32g0xx_hal.c ****   /* Disable SysTick Interrupt */
 413:Drivers/STM32G0xx_HAL_Driver/Src/stm32g0xx_hal.c ****   CLEAR_BIT(SysTick->CTRL,SysTick_CTRL_TICKINT_Msk);
 536              		.loc 1 413 3 view .LVU109
 537 0000 024A     		ldr	r2, .L46
 538 0002 1368     		ldr	r3, [r2]
 539 0004 0221     		movs	r1, #2
 540 0006 8B43     		bics	r3, r1
 541 0008 1360     		str	r3, [r2]
 414:Drivers/STM32G0xx_HAL_Driver/Src/stm32g0xx_hal.c **** }
 542              		.loc 1 414 1 is_stmt 0 view .LVU110
 543              		@ sp needed
 544 000a 7047     		bx	lr
 545              	.L47:
 546              		.align	2
 547              	.L46:
 548 000c 10E000E0 		.word	-536813552
 549              		.cfi_endproc
 550              	.LFE321:
 552              		.section	.text.HAL_ResumeTick,"ax",%progbits
 553              		.align	1
 554              		.weak	HAL_ResumeTick
 555              		.syntax unified
 556              		.code	16
 557              		.thumb_func
 559              	HAL_ResumeTick:
 560              	.LFB322:
 415:Drivers/STM32G0xx_HAL_Driver/Src/stm32g0xx_hal.c **** 
 416:Drivers/STM32G0xx_HAL_Driver/Src/stm32g0xx_hal.c **** /**
 417:Drivers/STM32G0xx_HAL_Driver/Src/stm32g0xx_hal.c ****   * @brief Resume Tick increment.
 418:Drivers/STM32G0xx_HAL_Driver/Src/stm32g0xx_hal.c ****   * @note In the default implementation , SysTick timer is the source of time base. It is
 419:Drivers/STM32G0xx_HAL_Driver/Src/stm32g0xx_hal.c ****   *       used to generate interrupts at regular time intervals. Once HAL_ResumeTick()
 420:Drivers/STM32G0xx_HAL_Driver/Src/stm32g0xx_hal.c ****   *       is called, the SysTick interrupt will be enabled and so Tick increment
 421:Drivers/STM32G0xx_HAL_Driver/Src/stm32g0xx_hal.c ****   *       is resumed.
 422:Drivers/STM32G0xx_HAL_Driver/Src/stm32g0xx_hal.c ****   * @note This function is declared as __weak to be overwritten in case of other
 423:Drivers/STM32G0xx_HAL_Driver/Src/stm32g0xx_hal.c ****   *       implementations in user file.
 424:Drivers/STM32G0xx_HAL_Driver/Src/stm32g0xx_hal.c ****   * @retval None
 425:Drivers/STM32G0xx_HAL_Driver/Src/stm32g0xx_hal.c ****   */
 426:Drivers/STM32G0xx_HAL_Driver/Src/stm32g0xx_hal.c **** __weak void HAL_ResumeTick(void)
 427:Drivers/STM32G0xx_HAL_Driver/Src/stm32g0xx_hal.c **** {
 561              		.loc 1 427 1 is_stmt 1 view -0
 562              		.cfi_startproc
 563              		@ args = 0, pretend = 0, frame = 0
 564              		@ frame_needed = 0, uses_anonymous_args = 0
 565              		@ link register save eliminated.
 428:Drivers/STM32G0xx_HAL_Driver/Src/stm32g0xx_hal.c ****   /* Enable SysTick Interrupt */
 429:Drivers/STM32G0xx_HAL_Driver/Src/stm32g0xx_hal.c ****   SET_BIT(SysTick->CTRL, SysTick_CTRL_TICKINT_Msk);
 566              		.loc 1 429 3 view .LVU112
 567 0000 024A     		ldr	r2, .L49
 568 0002 1368     		ldr	r3, [r2]
 569 0004 0221     		movs	r1, #2
 570 0006 0B43     		orrs	r3, r1
 571 0008 1360     		str	r3, [r2]
ARM GAS  /tmp/ccxbrxtl.s 			page 19


 430:Drivers/STM32G0xx_HAL_Driver/Src/stm32g0xx_hal.c **** }
 572              		.loc 1 430 1 is_stmt 0 view .LVU113
 573              		@ sp needed
 574 000a 7047     		bx	lr
 575              	.L50:
 576              		.align	2
 577              	.L49:
 578 000c 10E000E0 		.word	-536813552
 579              		.cfi_endproc
 580              	.LFE322:
 582              		.section	.text.HAL_GetHalVersion,"ax",%progbits
 583              		.align	1
 584              		.global	HAL_GetHalVersion
 585              		.syntax unified
 586              		.code	16
 587              		.thumb_func
 589              	HAL_GetHalVersion:
 590              	.LFB323:
 431:Drivers/STM32G0xx_HAL_Driver/Src/stm32g0xx_hal.c **** 
 432:Drivers/STM32G0xx_HAL_Driver/Src/stm32g0xx_hal.c **** /**
 433:Drivers/STM32G0xx_HAL_Driver/Src/stm32g0xx_hal.c ****   * @brief  Returns the HAL revision
 434:Drivers/STM32G0xx_HAL_Driver/Src/stm32g0xx_hal.c ****   * @retval version : 0xXYZR (8bits for each decimal, R for RC)
 435:Drivers/STM32G0xx_HAL_Driver/Src/stm32g0xx_hal.c ****   */
 436:Drivers/STM32G0xx_HAL_Driver/Src/stm32g0xx_hal.c **** uint32_t HAL_GetHalVersion(void)
 437:Drivers/STM32G0xx_HAL_Driver/Src/stm32g0xx_hal.c **** {
 591              		.loc 1 437 1 is_stmt 1 view -0
 592              		.cfi_startproc
 593              		@ args = 0, pretend = 0, frame = 0
 594              		@ frame_needed = 0, uses_anonymous_args = 0
 595              		@ link register save eliminated.
 438:Drivers/STM32G0xx_HAL_Driver/Src/stm32g0xx_hal.c ****   return __STM32G0xx_HAL_VERSION;
 596              		.loc 1 438 3 view .LVU115
 439:Drivers/STM32G0xx_HAL_Driver/Src/stm32g0xx_hal.c **** }
 597              		.loc 1 439 1 is_stmt 0 view .LVU116
 598 0000 0048     		ldr	r0, .L52
 599              		@ sp needed
 600 0002 7047     		bx	lr
 601              	.L53:
 602              		.align	2
 603              	.L52:
 604 0004 00060401 		.word	17040896
 605              		.cfi_endproc
 606              	.LFE323:
 608              		.section	.text.HAL_GetREVID,"ax",%progbits
 609              		.align	1
 610              		.global	HAL_GetREVID
 611              		.syntax unified
 612              		.code	16
 613              		.thumb_func
 615              	HAL_GetREVID:
 616              	.LFB324:
 440:Drivers/STM32G0xx_HAL_Driver/Src/stm32g0xx_hal.c **** 
 441:Drivers/STM32G0xx_HAL_Driver/Src/stm32g0xx_hal.c **** /**
 442:Drivers/STM32G0xx_HAL_Driver/Src/stm32g0xx_hal.c ****   * @brief  Returns the device revision identifier.
 443:Drivers/STM32G0xx_HAL_Driver/Src/stm32g0xx_hal.c ****   * @retval Device revision identifier
 444:Drivers/STM32G0xx_HAL_Driver/Src/stm32g0xx_hal.c ****   */
 445:Drivers/STM32G0xx_HAL_Driver/Src/stm32g0xx_hal.c **** uint32_t HAL_GetREVID(void)
ARM GAS  /tmp/ccxbrxtl.s 			page 20


 446:Drivers/STM32G0xx_HAL_Driver/Src/stm32g0xx_hal.c **** {
 617              		.loc 1 446 1 is_stmt 1 view -0
 618              		.cfi_startproc
 619              		@ args = 0, pretend = 0, frame = 0
 620              		@ frame_needed = 0, uses_anonymous_args = 0
 621              		@ link register save eliminated.
 447:Drivers/STM32G0xx_HAL_Driver/Src/stm32g0xx_hal.c ****   return ((DBG->IDCODE & DBG_IDCODE_REV_ID) >> 16U);
 622              		.loc 1 447 3 view .LVU118
 623              		.loc 1 447 15 is_stmt 0 view .LVU119
 624 0000 014B     		ldr	r3, .L55
 625 0002 1868     		ldr	r0, [r3]
 626              		.loc 1 447 45 view .LVU120
 627 0004 000C     		lsrs	r0, r0, #16
 448:Drivers/STM32G0xx_HAL_Driver/Src/stm32g0xx_hal.c **** }
 628              		.loc 1 448 1 view .LVU121
 629              		@ sp needed
 630 0006 7047     		bx	lr
 631              	.L56:
 632              		.align	2
 633              	.L55:
 634 0008 00580140 		.word	1073829888
 635              		.cfi_endproc
 636              	.LFE324:
 638              		.section	.text.HAL_GetDEVID,"ax",%progbits
 639              		.align	1
 640              		.global	HAL_GetDEVID
 641              		.syntax unified
 642              		.code	16
 643              		.thumb_func
 645              	HAL_GetDEVID:
 646              	.LFB325:
 449:Drivers/STM32G0xx_HAL_Driver/Src/stm32g0xx_hal.c **** 
 450:Drivers/STM32G0xx_HAL_Driver/Src/stm32g0xx_hal.c **** /**
 451:Drivers/STM32G0xx_HAL_Driver/Src/stm32g0xx_hal.c ****   * @brief  Returns the device identifier.
 452:Drivers/STM32G0xx_HAL_Driver/Src/stm32g0xx_hal.c ****   * @retval Device identifier
 453:Drivers/STM32G0xx_HAL_Driver/Src/stm32g0xx_hal.c ****   */
 454:Drivers/STM32G0xx_HAL_Driver/Src/stm32g0xx_hal.c **** uint32_t HAL_GetDEVID(void)
 455:Drivers/STM32G0xx_HAL_Driver/Src/stm32g0xx_hal.c **** {
 647              		.loc 1 455 1 is_stmt 1 view -0
 648              		.cfi_startproc
 649              		@ args = 0, pretend = 0, frame = 0
 650              		@ frame_needed = 0, uses_anonymous_args = 0
 651              		@ link register save eliminated.
 456:Drivers/STM32G0xx_HAL_Driver/Src/stm32g0xx_hal.c ****   return ((DBG->IDCODE) & DBG_IDCODE_DEV_ID);
 652              		.loc 1 456 3 view .LVU123
 653              		.loc 1 456 15 is_stmt 0 view .LVU124
 654 0000 024B     		ldr	r3, .L58
 655 0002 1868     		ldr	r0, [r3]
 656              		.loc 1 456 25 view .LVU125
 657 0004 0005     		lsls	r0, r0, #20
 658 0006 000D     		lsrs	r0, r0, #20
 457:Drivers/STM32G0xx_HAL_Driver/Src/stm32g0xx_hal.c **** }
 659              		.loc 1 457 1 view .LVU126
 660              		@ sp needed
 661 0008 7047     		bx	lr
 662              	.L59:
 663 000a C046     		.align	2
ARM GAS  /tmp/ccxbrxtl.s 			page 21


 664              	.L58:
 665 000c 00580140 		.word	1073829888
 666              		.cfi_endproc
 667              	.LFE325:
 669              		.section	.text.HAL_GetUIDw0,"ax",%progbits
 670              		.align	1
 671              		.global	HAL_GetUIDw0
 672              		.syntax unified
 673              		.code	16
 674              		.thumb_func
 676              	HAL_GetUIDw0:
 677              	.LFB326:
 458:Drivers/STM32G0xx_HAL_Driver/Src/stm32g0xx_hal.c **** 
 459:Drivers/STM32G0xx_HAL_Driver/Src/stm32g0xx_hal.c **** /**
 460:Drivers/STM32G0xx_HAL_Driver/Src/stm32g0xx_hal.c ****   * @brief  Returns first word of the unique device identifier (UID based on 96 bits)
 461:Drivers/STM32G0xx_HAL_Driver/Src/stm32g0xx_hal.c ****   * @retval Device identifier
 462:Drivers/STM32G0xx_HAL_Driver/Src/stm32g0xx_hal.c ****   */
 463:Drivers/STM32G0xx_HAL_Driver/Src/stm32g0xx_hal.c **** uint32_t HAL_GetUIDw0(void)
 464:Drivers/STM32G0xx_HAL_Driver/Src/stm32g0xx_hal.c **** {
 678              		.loc 1 464 1 is_stmt 1 view -0
 679              		.cfi_startproc
 680              		@ args = 0, pretend = 0, frame = 0
 681              		@ frame_needed = 0, uses_anonymous_args = 0
 682              		@ link register save eliminated.
 465:Drivers/STM32G0xx_HAL_Driver/Src/stm32g0xx_hal.c ****   return (READ_REG(*((uint32_t *)UID_BASE)));
 683              		.loc 1 465 3 view .LVU128
 684              		.loc 1 465 11 is_stmt 0 view .LVU129
 685 0000 014B     		ldr	r3, .L61
 686              		.loc 1 465 11 discriminator 1 view .LVU130
 687 0002 1868     		ldr	r0, [r3]
 466:Drivers/STM32G0xx_HAL_Driver/Src/stm32g0xx_hal.c **** }
 688              		.loc 1 466 1 view .LVU131
 689              		@ sp needed
 690 0004 7047     		bx	lr
 691              	.L62:
 692 0006 C046     		.align	2
 693              	.L61:
 694 0008 9075FF1F 		.word	536835472
 695              		.cfi_endproc
 696              	.LFE326:
 698              		.section	.text.HAL_GetUIDw1,"ax",%progbits
 699              		.align	1
 700              		.global	HAL_GetUIDw1
 701              		.syntax unified
 702              		.code	16
 703              		.thumb_func
 705              	HAL_GetUIDw1:
 706              	.LFB327:
 467:Drivers/STM32G0xx_HAL_Driver/Src/stm32g0xx_hal.c **** 
 468:Drivers/STM32G0xx_HAL_Driver/Src/stm32g0xx_hal.c **** /**
 469:Drivers/STM32G0xx_HAL_Driver/Src/stm32g0xx_hal.c ****   * @brief  Returns second word of the unique device identifier (UID based on 96 bits)
 470:Drivers/STM32G0xx_HAL_Driver/Src/stm32g0xx_hal.c ****   * @retval Device identifier
 471:Drivers/STM32G0xx_HAL_Driver/Src/stm32g0xx_hal.c ****   */
 472:Drivers/STM32G0xx_HAL_Driver/Src/stm32g0xx_hal.c **** uint32_t HAL_GetUIDw1(void)
 473:Drivers/STM32G0xx_HAL_Driver/Src/stm32g0xx_hal.c **** {
 707              		.loc 1 473 1 is_stmt 1 view -0
 708              		.cfi_startproc
ARM GAS  /tmp/ccxbrxtl.s 			page 22


 709              		@ args = 0, pretend = 0, frame = 0
 710              		@ frame_needed = 0, uses_anonymous_args = 0
 711              		@ link register save eliminated.
 474:Drivers/STM32G0xx_HAL_Driver/Src/stm32g0xx_hal.c ****   return (READ_REG(*((uint32_t *)(UID_BASE + 4U))));
 712              		.loc 1 474 3 view .LVU133
 713              		.loc 1 474 11 is_stmt 0 view .LVU134
 714 0000 014B     		ldr	r3, .L64
 715              		.loc 1 474 11 discriminator 1 view .LVU135
 716 0002 1868     		ldr	r0, [r3]
 475:Drivers/STM32G0xx_HAL_Driver/Src/stm32g0xx_hal.c **** }
 717              		.loc 1 475 1 view .LVU136
 718              		@ sp needed
 719 0004 7047     		bx	lr
 720              	.L65:
 721 0006 C046     		.align	2
 722              	.L64:
 723 0008 9475FF1F 		.word	536835476
 724              		.cfi_endproc
 725              	.LFE327:
 727              		.section	.text.HAL_GetUIDw2,"ax",%progbits
 728              		.align	1
 729              		.global	HAL_GetUIDw2
 730              		.syntax unified
 731              		.code	16
 732              		.thumb_func
 734              	HAL_GetUIDw2:
 735              	.LFB328:
 476:Drivers/STM32G0xx_HAL_Driver/Src/stm32g0xx_hal.c **** 
 477:Drivers/STM32G0xx_HAL_Driver/Src/stm32g0xx_hal.c **** /**
 478:Drivers/STM32G0xx_HAL_Driver/Src/stm32g0xx_hal.c ****   * @brief  Returns third word of the unique device identifier (UID based on 96 bits)
 479:Drivers/STM32G0xx_HAL_Driver/Src/stm32g0xx_hal.c ****   * @retval Device identifier
 480:Drivers/STM32G0xx_HAL_Driver/Src/stm32g0xx_hal.c ****   */
 481:Drivers/STM32G0xx_HAL_Driver/Src/stm32g0xx_hal.c **** uint32_t HAL_GetUIDw2(void)
 482:Drivers/STM32G0xx_HAL_Driver/Src/stm32g0xx_hal.c **** {
 736              		.loc 1 482 1 is_stmt 1 view -0
 737              		.cfi_startproc
 738              		@ args = 0, pretend = 0, frame = 0
 739              		@ frame_needed = 0, uses_anonymous_args = 0
 740              		@ link register save eliminated.
 483:Drivers/STM32G0xx_HAL_Driver/Src/stm32g0xx_hal.c ****   return (READ_REG(*((uint32_t *)(UID_BASE + 8U))));
 741              		.loc 1 483 3 view .LVU138
 742              		.loc 1 483 11 is_stmt 0 view .LVU139
 743 0000 014B     		ldr	r3, .L67
 744              		.loc 1 483 11 discriminator 1 view .LVU140
 745 0002 1868     		ldr	r0, [r3]
 484:Drivers/STM32G0xx_HAL_Driver/Src/stm32g0xx_hal.c **** }
 746              		.loc 1 484 1 view .LVU141
 747              		@ sp needed
 748 0004 7047     		bx	lr
 749              	.L68:
 750 0006 C046     		.align	2
 751              	.L67:
 752 0008 9875FF1F 		.word	536835480
 753              		.cfi_endproc
 754              	.LFE328:
 756              		.section	.text.HAL_DBGMCU_EnableDBGStopMode,"ax",%progbits
 757              		.align	1
ARM GAS  /tmp/ccxbrxtl.s 			page 23


 758              		.global	HAL_DBGMCU_EnableDBGStopMode
 759              		.syntax unified
 760              		.code	16
 761              		.thumb_func
 763              	HAL_DBGMCU_EnableDBGStopMode:
 764              	.LFB329:
 485:Drivers/STM32G0xx_HAL_Driver/Src/stm32g0xx_hal.c **** 
 486:Drivers/STM32G0xx_HAL_Driver/Src/stm32g0xx_hal.c **** /**
 487:Drivers/STM32G0xx_HAL_Driver/Src/stm32g0xx_hal.c ****   * @}
 488:Drivers/STM32G0xx_HAL_Driver/Src/stm32g0xx_hal.c ****   */
 489:Drivers/STM32G0xx_HAL_Driver/Src/stm32g0xx_hal.c **** 
 490:Drivers/STM32G0xx_HAL_Driver/Src/stm32g0xx_hal.c **** /** @addtogroup HAL_Exported_Functions_Group3
 491:Drivers/STM32G0xx_HAL_Driver/Src/stm32g0xx_hal.c ****  *  @brief    HAL Debug functions
 492:Drivers/STM32G0xx_HAL_Driver/Src/stm32g0xx_hal.c ****  *
 493:Drivers/STM32G0xx_HAL_Driver/Src/stm32g0xx_hal.c **** @verbatim
 494:Drivers/STM32G0xx_HAL_Driver/Src/stm32g0xx_hal.c ****  ===============================================================================
 495:Drivers/STM32G0xx_HAL_Driver/Src/stm32g0xx_hal.c ****                       ##### HAL Debug functions #####
 496:Drivers/STM32G0xx_HAL_Driver/Src/stm32g0xx_hal.c ****  ===============================================================================
 497:Drivers/STM32G0xx_HAL_Driver/Src/stm32g0xx_hal.c ****     [..]  This section provides functions allowing to:
 498:Drivers/STM32G0xx_HAL_Driver/Src/stm32g0xx_hal.c ****       (+) Enable/Disable Debug module during STOP mode
 499:Drivers/STM32G0xx_HAL_Driver/Src/stm32g0xx_hal.c ****       (+) Enable/Disable Debug module during STANDBY mode
 500:Drivers/STM32G0xx_HAL_Driver/Src/stm32g0xx_hal.c **** 
 501:Drivers/STM32G0xx_HAL_Driver/Src/stm32g0xx_hal.c **** @endverbatim
 502:Drivers/STM32G0xx_HAL_Driver/Src/stm32g0xx_hal.c ****   * @{
 503:Drivers/STM32G0xx_HAL_Driver/Src/stm32g0xx_hal.c ****   */
 504:Drivers/STM32G0xx_HAL_Driver/Src/stm32g0xx_hal.c **** 
 505:Drivers/STM32G0xx_HAL_Driver/Src/stm32g0xx_hal.c **** /**
 506:Drivers/STM32G0xx_HAL_Driver/Src/stm32g0xx_hal.c ****   * @brief  Enable the Debug Module during STOP mode
 507:Drivers/STM32G0xx_HAL_Driver/Src/stm32g0xx_hal.c ****   * @retval None
 508:Drivers/STM32G0xx_HAL_Driver/Src/stm32g0xx_hal.c ****   */
 509:Drivers/STM32G0xx_HAL_Driver/Src/stm32g0xx_hal.c **** void HAL_DBGMCU_EnableDBGStopMode(void)
 510:Drivers/STM32G0xx_HAL_Driver/Src/stm32g0xx_hal.c **** {
 765              		.loc 1 510 1 is_stmt 1 view -0
 766              		.cfi_startproc
 767              		@ args = 0, pretend = 0, frame = 0
 768              		@ frame_needed = 0, uses_anonymous_args = 0
 769              		@ link register save eliminated.
 511:Drivers/STM32G0xx_HAL_Driver/Src/stm32g0xx_hal.c ****   SET_BIT(DBG->CR, DBG_CR_DBG_STOP);
 770              		.loc 1 511 3 view .LVU143
 771 0000 024A     		ldr	r2, .L70
 772 0002 5368     		ldr	r3, [r2, #4]
 773 0004 0221     		movs	r1, #2
 774 0006 0B43     		orrs	r3, r1
 775 0008 5360     		str	r3, [r2, #4]
 512:Drivers/STM32G0xx_HAL_Driver/Src/stm32g0xx_hal.c **** }
 776              		.loc 1 512 1 is_stmt 0 view .LVU144
 777              		@ sp needed
 778 000a 7047     		bx	lr
 779              	.L71:
 780              		.align	2
 781              	.L70:
 782 000c 00580140 		.word	1073829888
 783              		.cfi_endproc
 784              	.LFE329:
 786              		.section	.text.HAL_DBGMCU_DisableDBGStopMode,"ax",%progbits
 787              		.align	1
 788              		.global	HAL_DBGMCU_DisableDBGStopMode
ARM GAS  /tmp/ccxbrxtl.s 			page 24


 789              		.syntax unified
 790              		.code	16
 791              		.thumb_func
 793              	HAL_DBGMCU_DisableDBGStopMode:
 794              	.LFB330:
 513:Drivers/STM32G0xx_HAL_Driver/Src/stm32g0xx_hal.c **** 
 514:Drivers/STM32G0xx_HAL_Driver/Src/stm32g0xx_hal.c **** /**
 515:Drivers/STM32G0xx_HAL_Driver/Src/stm32g0xx_hal.c ****   * @brief  Disable the Debug Module during STOP mode
 516:Drivers/STM32G0xx_HAL_Driver/Src/stm32g0xx_hal.c ****   * @retval None
 517:Drivers/STM32G0xx_HAL_Driver/Src/stm32g0xx_hal.c ****   */
 518:Drivers/STM32G0xx_HAL_Driver/Src/stm32g0xx_hal.c **** void HAL_DBGMCU_DisableDBGStopMode(void)
 519:Drivers/STM32G0xx_HAL_Driver/Src/stm32g0xx_hal.c **** {
 795              		.loc 1 519 1 is_stmt 1 view -0
 796              		.cfi_startproc
 797              		@ args = 0, pretend = 0, frame = 0
 798              		@ frame_needed = 0, uses_anonymous_args = 0
 799              		@ link register save eliminated.
 520:Drivers/STM32G0xx_HAL_Driver/Src/stm32g0xx_hal.c ****   CLEAR_BIT(DBG->CR, DBG_CR_DBG_STOP);
 800              		.loc 1 520 3 view .LVU146
 801 0000 024A     		ldr	r2, .L73
 802 0002 5368     		ldr	r3, [r2, #4]
 803 0004 0221     		movs	r1, #2
 804 0006 8B43     		bics	r3, r1
 805 0008 5360     		str	r3, [r2, #4]
 521:Drivers/STM32G0xx_HAL_Driver/Src/stm32g0xx_hal.c **** }
 806              		.loc 1 521 1 is_stmt 0 view .LVU147
 807              		@ sp needed
 808 000a 7047     		bx	lr
 809              	.L74:
 810              		.align	2
 811              	.L73:
 812 000c 00580140 		.word	1073829888
 813              		.cfi_endproc
 814              	.LFE330:
 816              		.section	.text.HAL_DBGMCU_EnableDBGStandbyMode,"ax",%progbits
 817              		.align	1
 818              		.global	HAL_DBGMCU_EnableDBGStandbyMode
 819              		.syntax unified
 820              		.code	16
 821              		.thumb_func
 823              	HAL_DBGMCU_EnableDBGStandbyMode:
 824              	.LFB331:
 522:Drivers/STM32G0xx_HAL_Driver/Src/stm32g0xx_hal.c **** 
 523:Drivers/STM32G0xx_HAL_Driver/Src/stm32g0xx_hal.c **** /**
 524:Drivers/STM32G0xx_HAL_Driver/Src/stm32g0xx_hal.c ****   * @brief  Enable the Debug Module during STANDBY mode
 525:Drivers/STM32G0xx_HAL_Driver/Src/stm32g0xx_hal.c ****   * @retval None
 526:Drivers/STM32G0xx_HAL_Driver/Src/stm32g0xx_hal.c ****   */
 527:Drivers/STM32G0xx_HAL_Driver/Src/stm32g0xx_hal.c **** void HAL_DBGMCU_EnableDBGStandbyMode(void)
 528:Drivers/STM32G0xx_HAL_Driver/Src/stm32g0xx_hal.c **** {
 825              		.loc 1 528 1 is_stmt 1 view -0
 826              		.cfi_startproc
 827              		@ args = 0, pretend = 0, frame = 0
 828              		@ frame_needed = 0, uses_anonymous_args = 0
 829              		@ link register save eliminated.
 529:Drivers/STM32G0xx_HAL_Driver/Src/stm32g0xx_hal.c ****   SET_BIT(DBG->CR, DBG_CR_DBG_STANDBY);
 830              		.loc 1 529 3 view .LVU149
 831 0000 024A     		ldr	r2, .L76
ARM GAS  /tmp/ccxbrxtl.s 			page 25


 832 0002 5368     		ldr	r3, [r2, #4]
 833 0004 0421     		movs	r1, #4
 834 0006 0B43     		orrs	r3, r1
 835 0008 5360     		str	r3, [r2, #4]
 530:Drivers/STM32G0xx_HAL_Driver/Src/stm32g0xx_hal.c **** }
 836              		.loc 1 530 1 is_stmt 0 view .LVU150
 837              		@ sp needed
 838 000a 7047     		bx	lr
 839              	.L77:
 840              		.align	2
 841              	.L76:
 842 000c 00580140 		.word	1073829888
 843              		.cfi_endproc
 844              	.LFE331:
 846              		.section	.text.HAL_DBGMCU_DisableDBGStandbyMode,"ax",%progbits
 847              		.align	1
 848              		.global	HAL_DBGMCU_DisableDBGStandbyMode
 849              		.syntax unified
 850              		.code	16
 851              		.thumb_func
 853              	HAL_DBGMCU_DisableDBGStandbyMode:
 854              	.LFB332:
 531:Drivers/STM32G0xx_HAL_Driver/Src/stm32g0xx_hal.c **** 
 532:Drivers/STM32G0xx_HAL_Driver/Src/stm32g0xx_hal.c **** /**
 533:Drivers/STM32G0xx_HAL_Driver/Src/stm32g0xx_hal.c ****   * @brief  Disable the Debug Module during STANDBY mode
 534:Drivers/STM32G0xx_HAL_Driver/Src/stm32g0xx_hal.c ****   * @retval None
 535:Drivers/STM32G0xx_HAL_Driver/Src/stm32g0xx_hal.c ****   */
 536:Drivers/STM32G0xx_HAL_Driver/Src/stm32g0xx_hal.c **** void HAL_DBGMCU_DisableDBGStandbyMode(void)
 537:Drivers/STM32G0xx_HAL_Driver/Src/stm32g0xx_hal.c **** {
 855              		.loc 1 537 1 is_stmt 1 view -0
 856              		.cfi_startproc
 857              		@ args = 0, pretend = 0, frame = 0
 858              		@ frame_needed = 0, uses_anonymous_args = 0
 859              		@ link register save eliminated.
 538:Drivers/STM32G0xx_HAL_Driver/Src/stm32g0xx_hal.c ****   CLEAR_BIT(DBG->CR, DBG_CR_DBG_STANDBY);
 860              		.loc 1 538 3 view .LVU152
 861 0000 024A     		ldr	r2, .L79
 862 0002 5368     		ldr	r3, [r2, #4]
 863 0004 0421     		movs	r1, #4
 864 0006 8B43     		bics	r3, r1
 865 0008 5360     		str	r3, [r2, #4]
 539:Drivers/STM32G0xx_HAL_Driver/Src/stm32g0xx_hal.c **** }
 866              		.loc 1 539 1 is_stmt 0 view .LVU153
 867              		@ sp needed
 868 000a 7047     		bx	lr
 869              	.L80:
 870              		.align	2
 871              	.L79:
 872 000c 00580140 		.word	1073829888
 873              		.cfi_endproc
 874              	.LFE332:
 876              		.section	.text.HAL_SYSCFG_EnableIOAnalogSwitchBooster,"ax",%progbits
 877              		.align	1
 878              		.global	HAL_SYSCFG_EnableIOAnalogSwitchBooster
 879              		.syntax unified
 880              		.code	16
 881              		.thumb_func
ARM GAS  /tmp/ccxbrxtl.s 			page 26


 883              	HAL_SYSCFG_EnableIOAnalogSwitchBooster:
 884              	.LFB333:
 540:Drivers/STM32G0xx_HAL_Driver/Src/stm32g0xx_hal.c **** 
 541:Drivers/STM32G0xx_HAL_Driver/Src/stm32g0xx_hal.c **** /**
 542:Drivers/STM32G0xx_HAL_Driver/Src/stm32g0xx_hal.c ****   * @}
 543:Drivers/STM32G0xx_HAL_Driver/Src/stm32g0xx_hal.c ****   */
 544:Drivers/STM32G0xx_HAL_Driver/Src/stm32g0xx_hal.c **** 
 545:Drivers/STM32G0xx_HAL_Driver/Src/stm32g0xx_hal.c **** /** @addtogroup HAL_Exported_Functions_Group4
 546:Drivers/STM32G0xx_HAL_Driver/Src/stm32g0xx_hal.c ****  *  @brief    SYSCFG configuration functions
 547:Drivers/STM32G0xx_HAL_Driver/Src/stm32g0xx_hal.c ****  *
 548:Drivers/STM32G0xx_HAL_Driver/Src/stm32g0xx_hal.c **** @verbatim
 549:Drivers/STM32G0xx_HAL_Driver/Src/stm32g0xx_hal.c ****  ===============================================================================
 550:Drivers/STM32G0xx_HAL_Driver/Src/stm32g0xx_hal.c ****                       ##### HAL SYSCFG configuration functions #####
 551:Drivers/STM32G0xx_HAL_Driver/Src/stm32g0xx_hal.c ****  ===============================================================================
 552:Drivers/STM32G0xx_HAL_Driver/Src/stm32g0xx_hal.c ****     [..]  This section provides functions allowing to:
 553:Drivers/STM32G0xx_HAL_Driver/Src/stm32g0xx_hal.c ****       (+) Enable/Disable Pin remap
 554:Drivers/STM32G0xx_HAL_Driver/Src/stm32g0xx_hal.c ****       (+) Configure the Voltage reference buffer
 555:Drivers/STM32G0xx_HAL_Driver/Src/stm32g0xx_hal.c ****       (+) Enable/Disable the Voltage reference buffer
 556:Drivers/STM32G0xx_HAL_Driver/Src/stm32g0xx_hal.c ****       (+) Enable/Disable the I/O analog switch voltage booster
 557:Drivers/STM32G0xx_HAL_Driver/Src/stm32g0xx_hal.c ****       (+) Enable/Disable dead battery behavior(*)
 558:Drivers/STM32G0xx_HAL_Driver/Src/stm32g0xx_hal.c ****       (+) Configure Clamping Diode on specific pins(*)
 559:Drivers/STM32G0xx_HAL_Driver/Src/stm32g0xx_hal.c ****    (*) Feature not available on all devices
 560:Drivers/STM32G0xx_HAL_Driver/Src/stm32g0xx_hal.c **** 
 561:Drivers/STM32G0xx_HAL_Driver/Src/stm32g0xx_hal.c **** @endverbatim
 562:Drivers/STM32G0xx_HAL_Driver/Src/stm32g0xx_hal.c ****   * @{
 563:Drivers/STM32G0xx_HAL_Driver/Src/stm32g0xx_hal.c ****   */
 564:Drivers/STM32G0xx_HAL_Driver/Src/stm32g0xx_hal.c **** #if defined(VREFBUF)
 565:Drivers/STM32G0xx_HAL_Driver/Src/stm32g0xx_hal.c **** /**
 566:Drivers/STM32G0xx_HAL_Driver/Src/stm32g0xx_hal.c ****   * @brief Configure the internal voltage reference buffer voltage scale.
 567:Drivers/STM32G0xx_HAL_Driver/Src/stm32g0xx_hal.c ****   * @param  VoltageScaling specifies the output voltage to achieve
 568:Drivers/STM32G0xx_HAL_Driver/Src/stm32g0xx_hal.c ****   *         This parameter can be one of the following values:
 569:Drivers/STM32G0xx_HAL_Driver/Src/stm32g0xx_hal.c ****   *         @arg @ref SYSCFG_VREFBUF_VoltageScale
 570:Drivers/STM32G0xx_HAL_Driver/Src/stm32g0xx_hal.c ****   * @retval None
 571:Drivers/STM32G0xx_HAL_Driver/Src/stm32g0xx_hal.c ****   */
 572:Drivers/STM32G0xx_HAL_Driver/Src/stm32g0xx_hal.c **** void HAL_SYSCFG_VREFBUF_VoltageScalingConfig(uint32_t VoltageScaling)
 573:Drivers/STM32G0xx_HAL_Driver/Src/stm32g0xx_hal.c **** {
 574:Drivers/STM32G0xx_HAL_Driver/Src/stm32g0xx_hal.c ****   /* Check the parameters */
 575:Drivers/STM32G0xx_HAL_Driver/Src/stm32g0xx_hal.c ****   assert_param(IS_SYSCFG_VREFBUF_VOLTAGE_SCALE(VoltageScaling));
 576:Drivers/STM32G0xx_HAL_Driver/Src/stm32g0xx_hal.c **** 
 577:Drivers/STM32G0xx_HAL_Driver/Src/stm32g0xx_hal.c ****   MODIFY_REG(VREFBUF->CSR, VREFBUF_CSR_VRS, VoltageScaling);
 578:Drivers/STM32G0xx_HAL_Driver/Src/stm32g0xx_hal.c **** }
 579:Drivers/STM32G0xx_HAL_Driver/Src/stm32g0xx_hal.c **** 
 580:Drivers/STM32G0xx_HAL_Driver/Src/stm32g0xx_hal.c **** /**
 581:Drivers/STM32G0xx_HAL_Driver/Src/stm32g0xx_hal.c ****   * @brief Configure the internal voltage reference buffer high impedance mode.
 582:Drivers/STM32G0xx_HAL_Driver/Src/stm32g0xx_hal.c ****   * @param  Mode specifies the high impedance mode
 583:Drivers/STM32G0xx_HAL_Driver/Src/stm32g0xx_hal.c ****   *          This parameter can be one of the following values:
 584:Drivers/STM32G0xx_HAL_Driver/Src/stm32g0xx_hal.c ****   *          @arg @ref SYSCFG_VREFBUF_HighImpedance
 585:Drivers/STM32G0xx_HAL_Driver/Src/stm32g0xx_hal.c ****   * @retval None
 586:Drivers/STM32G0xx_HAL_Driver/Src/stm32g0xx_hal.c ****   */
 587:Drivers/STM32G0xx_HAL_Driver/Src/stm32g0xx_hal.c **** void HAL_SYSCFG_VREFBUF_HighImpedanceConfig(uint32_t Mode)
 588:Drivers/STM32G0xx_HAL_Driver/Src/stm32g0xx_hal.c **** {
 589:Drivers/STM32G0xx_HAL_Driver/Src/stm32g0xx_hal.c ****   /* Check the parameters */
 590:Drivers/STM32G0xx_HAL_Driver/Src/stm32g0xx_hal.c ****   assert_param(IS_SYSCFG_VREFBUF_HIGH_IMPEDANCE(Mode));
 591:Drivers/STM32G0xx_HAL_Driver/Src/stm32g0xx_hal.c **** 
 592:Drivers/STM32G0xx_HAL_Driver/Src/stm32g0xx_hal.c ****   MODIFY_REG(VREFBUF->CSR, VREFBUF_CSR_HIZ, Mode);
 593:Drivers/STM32G0xx_HAL_Driver/Src/stm32g0xx_hal.c **** }
 594:Drivers/STM32G0xx_HAL_Driver/Src/stm32g0xx_hal.c **** 
ARM GAS  /tmp/ccxbrxtl.s 			page 27


 595:Drivers/STM32G0xx_HAL_Driver/Src/stm32g0xx_hal.c **** /**
 596:Drivers/STM32G0xx_HAL_Driver/Src/stm32g0xx_hal.c ****   * @brief  Tune the Internal Voltage Reference buffer (VREFBUF).
 597:Drivers/STM32G0xx_HAL_Driver/Src/stm32g0xx_hal.c ****   * @note   VrefBuf voltage scale is calibrated in production for each device,
 598:Drivers/STM32G0xx_HAL_Driver/Src/stm32g0xx_hal.c ****   *         using voltage scale 1. This calibration value is loaded
 599:Drivers/STM32G0xx_HAL_Driver/Src/stm32g0xx_hal.c ****   *         as default trimming value at device power up.
 600:Drivers/STM32G0xx_HAL_Driver/Src/stm32g0xx_hal.c ****   *         This trimming value can be fine tuned for voltage scales 0 and 1
 601:Drivers/STM32G0xx_HAL_Driver/Src/stm32g0xx_hal.c ****   *         using this function.
 602:Drivers/STM32G0xx_HAL_Driver/Src/stm32g0xx_hal.c ****   * @retval None
 603:Drivers/STM32G0xx_HAL_Driver/Src/stm32g0xx_hal.c ****   */
 604:Drivers/STM32G0xx_HAL_Driver/Src/stm32g0xx_hal.c **** void HAL_SYSCFG_VREFBUF_TrimmingConfig(uint32_t TrimmingValue)
 605:Drivers/STM32G0xx_HAL_Driver/Src/stm32g0xx_hal.c **** {
 606:Drivers/STM32G0xx_HAL_Driver/Src/stm32g0xx_hal.c ****   /* Check the parameters */
 607:Drivers/STM32G0xx_HAL_Driver/Src/stm32g0xx_hal.c ****   assert_param(IS_SYSCFG_VREFBUF_TRIMMING(TrimmingValue));
 608:Drivers/STM32G0xx_HAL_Driver/Src/stm32g0xx_hal.c **** 
 609:Drivers/STM32G0xx_HAL_Driver/Src/stm32g0xx_hal.c ****   MODIFY_REG(VREFBUF->CCR, VREFBUF_CCR_TRIM, TrimmingValue);
 610:Drivers/STM32G0xx_HAL_Driver/Src/stm32g0xx_hal.c **** }
 611:Drivers/STM32G0xx_HAL_Driver/Src/stm32g0xx_hal.c **** 
 612:Drivers/STM32G0xx_HAL_Driver/Src/stm32g0xx_hal.c **** /**
 613:Drivers/STM32G0xx_HAL_Driver/Src/stm32g0xx_hal.c ****   * @brief  Enable the Internal Voltage Reference buffer (VREFBUF).
 614:Drivers/STM32G0xx_HAL_Driver/Src/stm32g0xx_hal.c ****   * @retval HAL_OK/HAL_TIMEOUT
 615:Drivers/STM32G0xx_HAL_Driver/Src/stm32g0xx_hal.c ****   */
 616:Drivers/STM32G0xx_HAL_Driver/Src/stm32g0xx_hal.c **** HAL_StatusTypeDef HAL_SYSCFG_EnableVREFBUF(void)
 617:Drivers/STM32G0xx_HAL_Driver/Src/stm32g0xx_hal.c **** {
 618:Drivers/STM32G0xx_HAL_Driver/Src/stm32g0xx_hal.c ****   uint32_t  tickstart;
 619:Drivers/STM32G0xx_HAL_Driver/Src/stm32g0xx_hal.c **** 
 620:Drivers/STM32G0xx_HAL_Driver/Src/stm32g0xx_hal.c ****   SET_BIT(VREFBUF->CSR, VREFBUF_CSR_ENVR);
 621:Drivers/STM32G0xx_HAL_Driver/Src/stm32g0xx_hal.c **** 
 622:Drivers/STM32G0xx_HAL_Driver/Src/stm32g0xx_hal.c ****   /* Get Start Tick*/
 623:Drivers/STM32G0xx_HAL_Driver/Src/stm32g0xx_hal.c ****   tickstart = HAL_GetTick();
 624:Drivers/STM32G0xx_HAL_Driver/Src/stm32g0xx_hal.c **** 
 625:Drivers/STM32G0xx_HAL_Driver/Src/stm32g0xx_hal.c ****   /* Wait for VRR bit  */
 626:Drivers/STM32G0xx_HAL_Driver/Src/stm32g0xx_hal.c ****   while (READ_BIT(VREFBUF->CSR, VREFBUF_CSR_VRR) == 0x00U)
 627:Drivers/STM32G0xx_HAL_Driver/Src/stm32g0xx_hal.c ****   {
 628:Drivers/STM32G0xx_HAL_Driver/Src/stm32g0xx_hal.c ****     if ((HAL_GetTick() - tickstart) > VREFBUF_TIMEOUT_VALUE)
 629:Drivers/STM32G0xx_HAL_Driver/Src/stm32g0xx_hal.c ****     {
 630:Drivers/STM32G0xx_HAL_Driver/Src/stm32g0xx_hal.c ****       return HAL_TIMEOUT;
 631:Drivers/STM32G0xx_HAL_Driver/Src/stm32g0xx_hal.c ****     }
 632:Drivers/STM32G0xx_HAL_Driver/Src/stm32g0xx_hal.c ****   }
 633:Drivers/STM32G0xx_HAL_Driver/Src/stm32g0xx_hal.c **** 
 634:Drivers/STM32G0xx_HAL_Driver/Src/stm32g0xx_hal.c ****   return HAL_OK;
 635:Drivers/STM32G0xx_HAL_Driver/Src/stm32g0xx_hal.c **** }
 636:Drivers/STM32G0xx_HAL_Driver/Src/stm32g0xx_hal.c **** 
 637:Drivers/STM32G0xx_HAL_Driver/Src/stm32g0xx_hal.c **** /**
 638:Drivers/STM32G0xx_HAL_Driver/Src/stm32g0xx_hal.c ****   * @brief  Disable the Internal Voltage Reference buffer (VREFBUF).
 639:Drivers/STM32G0xx_HAL_Driver/Src/stm32g0xx_hal.c ****   *
 640:Drivers/STM32G0xx_HAL_Driver/Src/stm32g0xx_hal.c ****   * @retval None
 641:Drivers/STM32G0xx_HAL_Driver/Src/stm32g0xx_hal.c ****   */
 642:Drivers/STM32G0xx_HAL_Driver/Src/stm32g0xx_hal.c **** void HAL_SYSCFG_DisableVREFBUF(void)
 643:Drivers/STM32G0xx_HAL_Driver/Src/stm32g0xx_hal.c **** {
 644:Drivers/STM32G0xx_HAL_Driver/Src/stm32g0xx_hal.c ****   CLEAR_BIT(VREFBUF->CSR, VREFBUF_CSR_ENVR);
 645:Drivers/STM32G0xx_HAL_Driver/Src/stm32g0xx_hal.c **** }
 646:Drivers/STM32G0xx_HAL_Driver/Src/stm32g0xx_hal.c **** #endif /* VREFBUF */
 647:Drivers/STM32G0xx_HAL_Driver/Src/stm32g0xx_hal.c **** 
 648:Drivers/STM32G0xx_HAL_Driver/Src/stm32g0xx_hal.c **** /**
 649:Drivers/STM32G0xx_HAL_Driver/Src/stm32g0xx_hal.c ****   * @brief  Enable the I/O analog switch voltage booster
 650:Drivers/STM32G0xx_HAL_Driver/Src/stm32g0xx_hal.c ****   * @retval None
 651:Drivers/STM32G0xx_HAL_Driver/Src/stm32g0xx_hal.c ****   */
ARM GAS  /tmp/ccxbrxtl.s 			page 28


 652:Drivers/STM32G0xx_HAL_Driver/Src/stm32g0xx_hal.c **** void HAL_SYSCFG_EnableIOAnalogSwitchBooster(void)
 653:Drivers/STM32G0xx_HAL_Driver/Src/stm32g0xx_hal.c **** {
 885              		.loc 1 653 1 is_stmt 1 view -0
 886              		.cfi_startproc
 887              		@ args = 0, pretend = 0, frame = 0
 888              		@ frame_needed = 0, uses_anonymous_args = 0
 889              		@ link register save eliminated.
 654:Drivers/STM32G0xx_HAL_Driver/Src/stm32g0xx_hal.c ****   SET_BIT(SYSCFG->CFGR1, SYSCFG_CFGR1_BOOSTEN);
 890              		.loc 1 654 3 view .LVU155
 891 0000 034A     		ldr	r2, .L82
 892 0002 1168     		ldr	r1, [r2]
 893 0004 8023     		movs	r3, #128
 894 0006 5B00     		lsls	r3, r3, #1
 895 0008 0B43     		orrs	r3, r1
 896 000a 1360     		str	r3, [r2]
 655:Drivers/STM32G0xx_HAL_Driver/Src/stm32g0xx_hal.c **** }
 897              		.loc 1 655 1 is_stmt 0 view .LVU156
 898              		@ sp needed
 899 000c 7047     		bx	lr
 900              	.L83:
 901 000e C046     		.align	2
 902              	.L82:
 903 0010 00000140 		.word	1073807360
 904              		.cfi_endproc
 905              	.LFE333:
 907              		.section	.text.HAL_SYSCFG_DisableIOAnalogSwitchBooster,"ax",%progbits
 908              		.align	1
 909              		.global	HAL_SYSCFG_DisableIOAnalogSwitchBooster
 910              		.syntax unified
 911              		.code	16
 912              		.thumb_func
 914              	HAL_SYSCFG_DisableIOAnalogSwitchBooster:
 915              	.LFB334:
 656:Drivers/STM32G0xx_HAL_Driver/Src/stm32g0xx_hal.c **** 
 657:Drivers/STM32G0xx_HAL_Driver/Src/stm32g0xx_hal.c **** /**
 658:Drivers/STM32G0xx_HAL_Driver/Src/stm32g0xx_hal.c ****   * @brief  Disable the I/O analog switch voltage booster
 659:Drivers/STM32G0xx_HAL_Driver/Src/stm32g0xx_hal.c ****   * @retval None
 660:Drivers/STM32G0xx_HAL_Driver/Src/stm32g0xx_hal.c ****   */
 661:Drivers/STM32G0xx_HAL_Driver/Src/stm32g0xx_hal.c **** void HAL_SYSCFG_DisableIOAnalogSwitchBooster(void)
 662:Drivers/STM32G0xx_HAL_Driver/Src/stm32g0xx_hal.c **** {
 916              		.loc 1 662 1 is_stmt 1 view -0
 917              		.cfi_startproc
 918              		@ args = 0, pretend = 0, frame = 0
 919              		@ frame_needed = 0, uses_anonymous_args = 0
 920              		@ link register save eliminated.
 663:Drivers/STM32G0xx_HAL_Driver/Src/stm32g0xx_hal.c ****   CLEAR_BIT(SYSCFG->CFGR1, SYSCFG_CFGR1_BOOSTEN);
 921              		.loc 1 663 3 view .LVU158
 922 0000 024A     		ldr	r2, .L85
 923 0002 1368     		ldr	r3, [r2]
 924 0004 0249     		ldr	r1, .L85+4
 925 0006 0B40     		ands	r3, r1
 926 0008 1360     		str	r3, [r2]
 664:Drivers/STM32G0xx_HAL_Driver/Src/stm32g0xx_hal.c **** }
 927              		.loc 1 664 1 is_stmt 0 view .LVU159
 928              		@ sp needed
 929 000a 7047     		bx	lr
 930              	.L86:
ARM GAS  /tmp/ccxbrxtl.s 			page 29


 931              		.align	2
 932              	.L85:
 933 000c 00000140 		.word	1073807360
 934 0010 FFFEFFFF 		.word	-257
 935              		.cfi_endproc
 936              	.LFE334:
 938              		.section	.text.HAL_SYSCFG_EnableRemap,"ax",%progbits
 939              		.align	1
 940              		.global	HAL_SYSCFG_EnableRemap
 941              		.syntax unified
 942              		.code	16
 943              		.thumb_func
 945              	HAL_SYSCFG_EnableRemap:
 946              	.LVL30:
 947              	.LFB335:
 665:Drivers/STM32G0xx_HAL_Driver/Src/stm32g0xx_hal.c **** 
 666:Drivers/STM32G0xx_HAL_Driver/Src/stm32g0xx_hal.c **** /**
 667:Drivers/STM32G0xx_HAL_Driver/Src/stm32g0xx_hal.c ****   * @brief  Enable the remap on PA11_PA12
 668:Drivers/STM32G0xx_HAL_Driver/Src/stm32g0xx_hal.c ****   * @param  PinRemap specifies which pins have to be remapped
 669:Drivers/STM32G0xx_HAL_Driver/Src/stm32g0xx_hal.c ****   *         This parameter can be any combination of the following values:
 670:Drivers/STM32G0xx_HAL_Driver/Src/stm32g0xx_hal.c ****   *         @arg @ref SYSCFG_REMAP_PA11
 671:Drivers/STM32G0xx_HAL_Driver/Src/stm32g0xx_hal.c ****   *         @arg @ref SYSCFG_REMAP_PA12
 672:Drivers/STM32G0xx_HAL_Driver/Src/stm32g0xx_hal.c ****   * @retval None
 673:Drivers/STM32G0xx_HAL_Driver/Src/stm32g0xx_hal.c ****   */
 674:Drivers/STM32G0xx_HAL_Driver/Src/stm32g0xx_hal.c **** void HAL_SYSCFG_EnableRemap(uint32_t PinRemap)
 675:Drivers/STM32G0xx_HAL_Driver/Src/stm32g0xx_hal.c **** {
 948              		.loc 1 675 1 is_stmt 1 view -0
 949              		.cfi_startproc
 950              		@ args = 0, pretend = 0, frame = 0
 951              		@ frame_needed = 0, uses_anonymous_args = 0
 952              		@ link register save eliminated.
 676:Drivers/STM32G0xx_HAL_Driver/Src/stm32g0xx_hal.c ****   /* Check the parameter */
 677:Drivers/STM32G0xx_HAL_Driver/Src/stm32g0xx_hal.c ****   assert_param(IS_HAL_REMAP_PIN(PinRemap));
 953              		.loc 1 677 3 view .LVU161
 678:Drivers/STM32G0xx_HAL_Driver/Src/stm32g0xx_hal.c ****   SET_BIT(SYSCFG->CFGR1, PinRemap);
 954              		.loc 1 678 3 view .LVU162
 955 0000 024A     		ldr	r2, .L88
 956 0002 1368     		ldr	r3, [r2]
 957 0004 0343     		orrs	r3, r0
 958 0006 1360     		str	r3, [r2]
 679:Drivers/STM32G0xx_HAL_Driver/Src/stm32g0xx_hal.c **** }
 959              		.loc 1 679 1 is_stmt 0 view .LVU163
 960              		@ sp needed
 961 0008 7047     		bx	lr
 962              	.L89:
 963 000a C046     		.align	2
 964              	.L88:
 965 000c 00000140 		.word	1073807360
 966              		.cfi_endproc
 967              	.LFE335:
 969              		.section	.text.HAL_SYSCFG_DisableRemap,"ax",%progbits
 970              		.align	1
 971              		.global	HAL_SYSCFG_DisableRemap
 972              		.syntax unified
 973              		.code	16
 974              		.thumb_func
 976              	HAL_SYSCFG_DisableRemap:
ARM GAS  /tmp/ccxbrxtl.s 			page 30


 977              	.LVL31:
 978              	.LFB336:
 680:Drivers/STM32G0xx_HAL_Driver/Src/stm32g0xx_hal.c **** 
 681:Drivers/STM32G0xx_HAL_Driver/Src/stm32g0xx_hal.c **** /**
 682:Drivers/STM32G0xx_HAL_Driver/Src/stm32g0xx_hal.c ****   * @brief  Disable the remap on PA11_PA12
 683:Drivers/STM32G0xx_HAL_Driver/Src/stm32g0xx_hal.c ****   * @param  PinRemap specifies which pins will behave normally
 684:Drivers/STM32G0xx_HAL_Driver/Src/stm32g0xx_hal.c ****   *         This parameter can be any combination of the following values:
 685:Drivers/STM32G0xx_HAL_Driver/Src/stm32g0xx_hal.c ****   *         @arg @ref SYSCFG_REMAP_PA11
 686:Drivers/STM32G0xx_HAL_Driver/Src/stm32g0xx_hal.c ****   *         @arg @ref SYSCFG_REMAP_PA12
 687:Drivers/STM32G0xx_HAL_Driver/Src/stm32g0xx_hal.c ****   * @retval None
 688:Drivers/STM32G0xx_HAL_Driver/Src/stm32g0xx_hal.c ****   */
 689:Drivers/STM32G0xx_HAL_Driver/Src/stm32g0xx_hal.c **** void HAL_SYSCFG_DisableRemap(uint32_t PinRemap)
 690:Drivers/STM32G0xx_HAL_Driver/Src/stm32g0xx_hal.c **** {
 979              		.loc 1 690 1 is_stmt 1 view -0
 980              		.cfi_startproc
 981              		@ args = 0, pretend = 0, frame = 0
 982              		@ frame_needed = 0, uses_anonymous_args = 0
 983              		@ link register save eliminated.
 691:Drivers/STM32G0xx_HAL_Driver/Src/stm32g0xx_hal.c ****   /* Check the parameter */
 692:Drivers/STM32G0xx_HAL_Driver/Src/stm32g0xx_hal.c ****   assert_param(IS_HAL_REMAP_PIN(PinRemap));
 984              		.loc 1 692 3 view .LVU165
 693:Drivers/STM32G0xx_HAL_Driver/Src/stm32g0xx_hal.c ****   CLEAR_BIT(SYSCFG->CFGR1, PinRemap);
 985              		.loc 1 693 3 view .LVU166
 986 0000 024A     		ldr	r2, .L91
 987 0002 1368     		ldr	r3, [r2]
 988 0004 8343     		bics	r3, r0
 989 0006 1360     		str	r3, [r2]
 694:Drivers/STM32G0xx_HAL_Driver/Src/stm32g0xx_hal.c **** }
 990              		.loc 1 694 1 is_stmt 0 view .LVU167
 991              		@ sp needed
 992 0008 7047     		bx	lr
 993              	.L92:
 994 000a C046     		.align	2
 995              	.L91:
 996 000c 00000140 		.word	1073807360
 997              		.cfi_endproc
 998              	.LFE336:
 1000              		.section	.text.HAL_SYSCFG_StrobeDBattpinsConfig,"ax",%progbits
 1001              		.align	1
 1002              		.global	HAL_SYSCFG_StrobeDBattpinsConfig
 1003              		.syntax unified
 1004              		.code	16
 1005              		.thumb_func
 1007              	HAL_SYSCFG_StrobeDBattpinsConfig:
 1008              	.LVL32:
 1009              	.LFB337:
 695:Drivers/STM32G0xx_HAL_Driver/Src/stm32g0xx_hal.c **** 
 696:Drivers/STM32G0xx_HAL_Driver/Src/stm32g0xx_hal.c **** #if defined(SYSCFG_CDEN_SUPPORT)
 697:Drivers/STM32G0xx_HAL_Driver/Src/stm32g0xx_hal.c **** /**
 698:Drivers/STM32G0xx_HAL_Driver/Src/stm32g0xx_hal.c ****   * @brief  Enable Clamping Diode on specified IO
 699:Drivers/STM32G0xx_HAL_Driver/Src/stm32g0xx_hal.c ****   * @param  PinConfig specifies on which pins clamping Diode has to be enabled
 700:Drivers/STM32G0xx_HAL_Driver/Src/stm32g0xx_hal.c ****   *         This parameter can be any combination of the following values:
 701:Drivers/STM32G0xx_HAL_Driver/Src/stm32g0xx_hal.c ****   *         @arg @ref SYSCFG_ClampingDiode
 702:Drivers/STM32G0xx_HAL_Driver/Src/stm32g0xx_hal.c ****   * @retval None
 703:Drivers/STM32G0xx_HAL_Driver/Src/stm32g0xx_hal.c ****   */
 704:Drivers/STM32G0xx_HAL_Driver/Src/stm32g0xx_hal.c **** void HAL_SYSCFG_EnableClampingDiode(uint32_t PinConfig)
 705:Drivers/STM32G0xx_HAL_Driver/Src/stm32g0xx_hal.c **** {
ARM GAS  /tmp/ccxbrxtl.s 			page 31


 706:Drivers/STM32G0xx_HAL_Driver/Src/stm32g0xx_hal.c ****   /* Check the parameter */
 707:Drivers/STM32G0xx_HAL_Driver/Src/stm32g0xx_hal.c ****   assert_param(IS_SYSCFG_CLAMPINGDIODE(PinConfig));
 708:Drivers/STM32G0xx_HAL_Driver/Src/stm32g0xx_hal.c ****   SET_BIT(SYSCFG->CFGR2, PinConfig);
 709:Drivers/STM32G0xx_HAL_Driver/Src/stm32g0xx_hal.c **** }
 710:Drivers/STM32G0xx_HAL_Driver/Src/stm32g0xx_hal.c **** 
 711:Drivers/STM32G0xx_HAL_Driver/Src/stm32g0xx_hal.c **** /**
 712:Drivers/STM32G0xx_HAL_Driver/Src/stm32g0xx_hal.c ****   * @brief  Disable Clamping Diode on specified IO
 713:Drivers/STM32G0xx_HAL_Driver/Src/stm32g0xx_hal.c ****   * @param  PinConfig specifies on which pins clamping Diode has to be disabled
 714:Drivers/STM32G0xx_HAL_Driver/Src/stm32g0xx_hal.c ****   *         This parameter can be any combination of the following values:
 715:Drivers/STM32G0xx_HAL_Driver/Src/stm32g0xx_hal.c ****   *         @arg @ref SYSCFG_ClampingDiode
 716:Drivers/STM32G0xx_HAL_Driver/Src/stm32g0xx_hal.c ****   * @retval None
 717:Drivers/STM32G0xx_HAL_Driver/Src/stm32g0xx_hal.c ****   */
 718:Drivers/STM32G0xx_HAL_Driver/Src/stm32g0xx_hal.c **** void HAL_SYSCFG_DisableClampingDiode(uint32_t PinConfig)
 719:Drivers/STM32G0xx_HAL_Driver/Src/stm32g0xx_hal.c **** {
 720:Drivers/STM32G0xx_HAL_Driver/Src/stm32g0xx_hal.c ****   /* Check the parameter */
 721:Drivers/STM32G0xx_HAL_Driver/Src/stm32g0xx_hal.c ****   assert_param(IS_SYSCFG_CLAMPINGDIODE(PinConfig));
 722:Drivers/STM32G0xx_HAL_Driver/Src/stm32g0xx_hal.c ****   CLEAR_BIT(SYSCFG->CFGR2, PinConfig);
 723:Drivers/STM32G0xx_HAL_Driver/Src/stm32g0xx_hal.c **** }
 724:Drivers/STM32G0xx_HAL_Driver/Src/stm32g0xx_hal.c **** #endif /* SYSCFG_CDEN_SUPPORT */
 725:Drivers/STM32G0xx_HAL_Driver/Src/stm32g0xx_hal.c **** 
 726:Drivers/STM32G0xx_HAL_Driver/Src/stm32g0xx_hal.c **** #if defined (SYSCFG_CFGR1_UCPD1_STROBE) || defined (SYSCFG_CFGR1_UCPD2_STROBE)
 727:Drivers/STM32G0xx_HAL_Driver/Src/stm32g0xx_hal.c **** /**
 728:Drivers/STM32G0xx_HAL_Driver/Src/stm32g0xx_hal.c ****   * @brief  Strobe configuration of GPIO depending on UCPDx dead battery settings
 729:Drivers/STM32G0xx_HAL_Driver/Src/stm32g0xx_hal.c ****   * @param  ConfigDeadBattery specifies on which pins to make effective or not Dead Battery sw conf
 730:Drivers/STM32G0xx_HAL_Driver/Src/stm32g0xx_hal.c ****   *         This parameter can be any combination of the following values:
 731:Drivers/STM32G0xx_HAL_Driver/Src/stm32g0xx_hal.c ****   *         @arg @ref SYSCFG_UCPD1_STROBE
 732:Drivers/STM32G0xx_HAL_Driver/Src/stm32g0xx_hal.c ****   *         @arg @ref SYSCFG_UCPD2_STROBE
 733:Drivers/STM32G0xx_HAL_Driver/Src/stm32g0xx_hal.c ****   * @retval None
 734:Drivers/STM32G0xx_HAL_Driver/Src/stm32g0xx_hal.c ****   */
 735:Drivers/STM32G0xx_HAL_Driver/Src/stm32g0xx_hal.c **** void HAL_SYSCFG_StrobeDBattpinsConfig(uint32_t ConfigDeadBattery)
 736:Drivers/STM32G0xx_HAL_Driver/Src/stm32g0xx_hal.c **** {
 1010              		.loc 1 736 1 is_stmt 1 view -0
 1011              		.cfi_startproc
 1012              		@ args = 0, pretend = 0, frame = 0
 1013              		@ frame_needed = 0, uses_anonymous_args = 0
 1014              		@ link register save eliminated.
 737:Drivers/STM32G0xx_HAL_Driver/Src/stm32g0xx_hal.c ****   assert_param(IS_SYSCFG_DBATT_CONFIG(ConfigDeadBattery));
 1015              		.loc 1 737 3 view .LVU169
 738:Drivers/STM32G0xx_HAL_Driver/Src/stm32g0xx_hal.c **** 
 739:Drivers/STM32G0xx_HAL_Driver/Src/stm32g0xx_hal.c ****   /* Change strobe configuration of GPIO depending on UCPDx dead battery settings */
 740:Drivers/STM32G0xx_HAL_Driver/Src/stm32g0xx_hal.c ****   MODIFY_REG(SYSCFG->CFGR1, (SYSCFG_CFGR1_UCPD1_STROBE | SYSCFG_CFGR1_UCPD2_STROBE), ConfigDeadBatt
 1016              		.loc 1 740 3 view .LVU170
 1017 0000 034A     		ldr	r2, .L94
 1018 0002 1368     		ldr	r3, [r2]
 1019 0004 0349     		ldr	r1, .L94+4
 1020 0006 0B40     		ands	r3, r1
 1021 0008 0343     		orrs	r3, r0
 1022 000a 1360     		str	r3, [r2]
 741:Drivers/STM32G0xx_HAL_Driver/Src/stm32g0xx_hal.c **** }
 1023              		.loc 1 741 1 is_stmt 0 view .LVU171
 1024              		@ sp needed
 1025 000c 7047     		bx	lr
 1026              	.L95:
 1027 000e C046     		.align	2
 1028              	.L94:
 1029 0010 00000140 		.word	1073807360
 1030 0014 FFF9FFFF 		.word	-1537
ARM GAS  /tmp/ccxbrxtl.s 			page 32


 1031              		.cfi_endproc
 1032              	.LFE337:
 1034              		.global	uwTickFreq
 1035              		.section	.data.uwTickFreq,"aw"
 1038              	uwTickFreq:
 1039 0000 01       		.byte	1
 1040              		.global	uwTickPrio
 1041              		.section	.data.uwTickPrio,"aw"
 1042              		.align	2
 1045              	uwTickPrio:
 1046 0000 04000000 		.word	4
 1047              		.global	uwTick
 1048              		.section	.bss.uwTick,"aw",%nobits
 1049              		.align	2
 1052              	uwTick:
 1053 0000 00000000 		.space	4
 1054              		.text
 1055              	.Letext0:
 1056              		.file 2 "Drivers/CMSIS/Device/ST/STM32G0xx/Include/stm32g070xx.h"
 1057              		.file 3 "/home/achraf/Desktop/Toolchain/arm-gnu-toolchain-14.3.rel1-x86_64-arm-none-eabi/arm-none-
 1058              		.file 4 "/home/achraf/Desktop/Toolchain/arm-gnu-toolchain-14.3.rel1-x86_64-arm-none-eabi/arm-none-
 1059              		.file 5 "Drivers/CMSIS/Include/core_cm0plus.h"
 1060              		.file 6 "Drivers/STM32G0xx_HAL_Driver/Inc/stm32g0xx_hal_def.h"
 1061              		.file 7 "Drivers/STM32G0xx_HAL_Driver/Inc/stm32g0xx_hal.h"
 1062              		.file 8 "Drivers/CMSIS/Device/ST/STM32G0xx/Include/system_stm32g0xx.h"
 1063              		.file 9 "Drivers/STM32G0xx_HAL_Driver/Inc/stm32g0xx_ll_dma.h"
 1064              		.file 10 "Drivers/STM32G0xx_HAL_Driver/Inc/stm32g0xx_hal_cortex.h"
ARM GAS  /tmp/ccxbrxtl.s 			page 33

