ARM GAS  /tmp/ccFfnGEb.s 			page 1


   1              		.cpu cortex-m0plus
   2              		.arch armv6s-m
   3              		.fpu softvfp
   4              		.eabi_attribute 20, 1
   5              		.eabi_attribute 21, 1
   6              		.eabi_attribute 23, 3
   7              		.eabi_attribute 24, 1
   8              		.eabi_attribute 25, 1
   9              		.eabi_attribute 26, 1
  10              		.eabi_attribute 30, 1
  11              		.eabi_attribute 34, 0
  12              		.eabi_attribute 18, 4
  13              		.file	"stm32g0xx_hal_gpio.c"
  14              		.text
  15              	.Ltext0:
  16              		.cfi_sections	.debug_frame
  17              		.file 1 "Drivers/STM32G0xx_HAL_Driver/Src/stm32g0xx_hal_gpio.c"
  18              		.section	.text.HAL_GPIO_Init,"ax",%progbits
  19              		.align	1
  20              		.global	HAL_GPIO_Init
  21              		.syntax unified
  22              		.code	16
  23              		.thumb_func
  25              	HAL_GPIO_Init:
  26              	.LVL0:
  27              	.LFB310:
   1:Drivers/STM32G0xx_HAL_Driver/Src/stm32g0xx_hal_gpio.c **** /**
   2:Drivers/STM32G0xx_HAL_Driver/Src/stm32g0xx_hal_gpio.c ****   ******************************************************************************
   3:Drivers/STM32G0xx_HAL_Driver/Src/stm32g0xx_hal_gpio.c ****   * @file    stm32g0xx_hal_gpio.c
   4:Drivers/STM32G0xx_HAL_Driver/Src/stm32g0xx_hal_gpio.c ****   * @author  MCD Application Team
   5:Drivers/STM32G0xx_HAL_Driver/Src/stm32g0xx_hal_gpio.c ****   * @brief   GPIO HAL module driver.
   6:Drivers/STM32G0xx_HAL_Driver/Src/stm32g0xx_hal_gpio.c ****   *          This file provides firmware functions to manage the following
   7:Drivers/STM32G0xx_HAL_Driver/Src/stm32g0xx_hal_gpio.c ****   *          functionalities of the General Purpose Input/Output (GPIO) peripheral:
   8:Drivers/STM32G0xx_HAL_Driver/Src/stm32g0xx_hal_gpio.c ****   *           + Initialization and de-initialization functions
   9:Drivers/STM32G0xx_HAL_Driver/Src/stm32g0xx_hal_gpio.c ****   *           + IO operation functions
  10:Drivers/STM32G0xx_HAL_Driver/Src/stm32g0xx_hal_gpio.c ****   *
  11:Drivers/STM32G0xx_HAL_Driver/Src/stm32g0xx_hal_gpio.c ****   ******************************************************************************
  12:Drivers/STM32G0xx_HAL_Driver/Src/stm32g0xx_hal_gpio.c ****   * @attention
  13:Drivers/STM32G0xx_HAL_Driver/Src/stm32g0xx_hal_gpio.c ****   *
  14:Drivers/STM32G0xx_HAL_Driver/Src/stm32g0xx_hal_gpio.c ****   * Copyright (c) 2018 STMicroelectronics.
  15:Drivers/STM32G0xx_HAL_Driver/Src/stm32g0xx_hal_gpio.c ****   * All rights reserved.
  16:Drivers/STM32G0xx_HAL_Driver/Src/stm32g0xx_hal_gpio.c ****   *
  17:Drivers/STM32G0xx_HAL_Driver/Src/stm32g0xx_hal_gpio.c ****   * This software is licensed under terms that can be found in the LICENSE file
  18:Drivers/STM32G0xx_HAL_Driver/Src/stm32g0xx_hal_gpio.c ****   * in the root directory of this software component.
  19:Drivers/STM32G0xx_HAL_Driver/Src/stm32g0xx_hal_gpio.c ****   * If no LICENSE file comes with this software, it is provided AS-IS.
  20:Drivers/STM32G0xx_HAL_Driver/Src/stm32g0xx_hal_gpio.c ****   *
  21:Drivers/STM32G0xx_HAL_Driver/Src/stm32g0xx_hal_gpio.c ****   ******************************************************************************
  22:Drivers/STM32G0xx_HAL_Driver/Src/stm32g0xx_hal_gpio.c ****   @verbatim
  23:Drivers/STM32G0xx_HAL_Driver/Src/stm32g0xx_hal_gpio.c ****   ==============================================================================
  24:Drivers/STM32G0xx_HAL_Driver/Src/stm32g0xx_hal_gpio.c ****                     ##### GPIO Peripheral features #####
  25:Drivers/STM32G0xx_HAL_Driver/Src/stm32g0xx_hal_gpio.c ****   ==============================================================================
  26:Drivers/STM32G0xx_HAL_Driver/Src/stm32g0xx_hal_gpio.c ****   [..]
  27:Drivers/STM32G0xx_HAL_Driver/Src/stm32g0xx_hal_gpio.c ****     (+) Each port bit of the general-purpose I/O (GPIO) ports can be individually
  28:Drivers/STM32G0xx_HAL_Driver/Src/stm32g0xx_hal_gpio.c ****         configured by software in several modes:
  29:Drivers/STM32G0xx_HAL_Driver/Src/stm32g0xx_hal_gpio.c ****         (++) Input mode
  30:Drivers/STM32G0xx_HAL_Driver/Src/stm32g0xx_hal_gpio.c ****         (++) Analog mode
  31:Drivers/STM32G0xx_HAL_Driver/Src/stm32g0xx_hal_gpio.c ****         (++) Output mode
ARM GAS  /tmp/ccFfnGEb.s 			page 2


  32:Drivers/STM32G0xx_HAL_Driver/Src/stm32g0xx_hal_gpio.c ****         (++) Alternate function mode
  33:Drivers/STM32G0xx_HAL_Driver/Src/stm32g0xx_hal_gpio.c ****         (++) External interrupt/event lines
  34:Drivers/STM32G0xx_HAL_Driver/Src/stm32g0xx_hal_gpio.c **** 
  35:Drivers/STM32G0xx_HAL_Driver/Src/stm32g0xx_hal_gpio.c ****     (+) During and just after reset, the alternate functions and external interrupt
  36:Drivers/STM32G0xx_HAL_Driver/Src/stm32g0xx_hal_gpio.c ****         lines are not active and the I/O ports are configured in input floating mode.
  37:Drivers/STM32G0xx_HAL_Driver/Src/stm32g0xx_hal_gpio.c **** 
  38:Drivers/STM32G0xx_HAL_Driver/Src/stm32g0xx_hal_gpio.c ****     (+) All GPIO pins have weak internal pull-up and pull-down resistors, which can be
  39:Drivers/STM32G0xx_HAL_Driver/Src/stm32g0xx_hal_gpio.c ****         activated or not.
  40:Drivers/STM32G0xx_HAL_Driver/Src/stm32g0xx_hal_gpio.c **** 
  41:Drivers/STM32G0xx_HAL_Driver/Src/stm32g0xx_hal_gpio.c ****     (+) In Output or Alternate mode, each IO can be configured on open-drain or push-pull
  42:Drivers/STM32G0xx_HAL_Driver/Src/stm32g0xx_hal_gpio.c ****         type and the IO speed can be selected depending on the VDD value.
  43:Drivers/STM32G0xx_HAL_Driver/Src/stm32g0xx_hal_gpio.c **** 
  44:Drivers/STM32G0xx_HAL_Driver/Src/stm32g0xx_hal_gpio.c ****     (+) The microcontroller IO pins are connected to onboard peripherals/modules through a
  45:Drivers/STM32G0xx_HAL_Driver/Src/stm32g0xx_hal_gpio.c ****         multiplexer that allows only one peripheral alternate function (AF) connected
  46:Drivers/STM32G0xx_HAL_Driver/Src/stm32g0xx_hal_gpio.c ****        to an IO pin at a time. In this way, there can be no conflict between peripherals
  47:Drivers/STM32G0xx_HAL_Driver/Src/stm32g0xx_hal_gpio.c ****        sharing the same IO pin.
  48:Drivers/STM32G0xx_HAL_Driver/Src/stm32g0xx_hal_gpio.c **** 
  49:Drivers/STM32G0xx_HAL_Driver/Src/stm32g0xx_hal_gpio.c ****     (+) All ports have external interrupt/event capability. To use external interrupt
  50:Drivers/STM32G0xx_HAL_Driver/Src/stm32g0xx_hal_gpio.c ****         lines, the port must be configured in input mode. All available GPIO pins are
  51:Drivers/STM32G0xx_HAL_Driver/Src/stm32g0xx_hal_gpio.c ****         connected to the 16 external interrupt/event lines from EXTI0 to EXTI15.
  52:Drivers/STM32G0xx_HAL_Driver/Src/stm32g0xx_hal_gpio.c **** 
  53:Drivers/STM32G0xx_HAL_Driver/Src/stm32g0xx_hal_gpio.c ****     (+) The external interrupt/event controller consists of up to 28 edge detectors
  54:Drivers/STM32G0xx_HAL_Driver/Src/stm32g0xx_hal_gpio.c ****         (16 lines are connected to GPIO) for generating event/interrupt requests (each
  55:Drivers/STM32G0xx_HAL_Driver/Src/stm32g0xx_hal_gpio.c ****         input line can be independently configured to select the type (interrupt or event)
  56:Drivers/STM32G0xx_HAL_Driver/Src/stm32g0xx_hal_gpio.c ****         and the corresponding trigger event (rising or falling or both). Each line can
  57:Drivers/STM32G0xx_HAL_Driver/Src/stm32g0xx_hal_gpio.c ****         also be masked independently.
  58:Drivers/STM32G0xx_HAL_Driver/Src/stm32g0xx_hal_gpio.c **** 
  59:Drivers/STM32G0xx_HAL_Driver/Src/stm32g0xx_hal_gpio.c ****                      ##### How to use this driver #####
  60:Drivers/STM32G0xx_HAL_Driver/Src/stm32g0xx_hal_gpio.c ****   ==============================================================================
  61:Drivers/STM32G0xx_HAL_Driver/Src/stm32g0xx_hal_gpio.c ****   [..]
  62:Drivers/STM32G0xx_HAL_Driver/Src/stm32g0xx_hal_gpio.c ****     (#) Enable the GPIO AHB clock using the following function: __HAL_RCC_GPIOx_CLK_ENABLE().
  63:Drivers/STM32G0xx_HAL_Driver/Src/stm32g0xx_hal_gpio.c **** 
  64:Drivers/STM32G0xx_HAL_Driver/Src/stm32g0xx_hal_gpio.c ****     (#) Configure the GPIO pin(s) using HAL_GPIO_Init().
  65:Drivers/STM32G0xx_HAL_Driver/Src/stm32g0xx_hal_gpio.c ****         (++) Configure the IO mode using "Mode" member from GPIO_InitTypeDef structure
  66:Drivers/STM32G0xx_HAL_Driver/Src/stm32g0xx_hal_gpio.c ****         (++) Activate Pull-up, Pull-down resistor using "Pull" member from GPIO_InitTypeDef
  67:Drivers/STM32G0xx_HAL_Driver/Src/stm32g0xx_hal_gpio.c ****              structure.
  68:Drivers/STM32G0xx_HAL_Driver/Src/stm32g0xx_hal_gpio.c ****         (++) In case of Output or alternate function mode selection: the speed is
  69:Drivers/STM32G0xx_HAL_Driver/Src/stm32g0xx_hal_gpio.c ****              configured through "Speed" member from GPIO_InitTypeDef structure.
  70:Drivers/STM32G0xx_HAL_Driver/Src/stm32g0xx_hal_gpio.c ****         (++) In alternate mode is selection, the alternate function connected to the IO
  71:Drivers/STM32G0xx_HAL_Driver/Src/stm32g0xx_hal_gpio.c ****              is configured through "Alternate" member from GPIO_InitTypeDef structure.
  72:Drivers/STM32G0xx_HAL_Driver/Src/stm32g0xx_hal_gpio.c ****         (++) Analog mode is required when a pin is to be used as ADC channel
  73:Drivers/STM32G0xx_HAL_Driver/Src/stm32g0xx_hal_gpio.c ****              or DAC output.
  74:Drivers/STM32G0xx_HAL_Driver/Src/stm32g0xx_hal_gpio.c ****         (++) In case of external interrupt/event selection the "Mode" member from
  75:Drivers/STM32G0xx_HAL_Driver/Src/stm32g0xx_hal_gpio.c ****              GPIO_InitTypeDef structure select the type (interrupt or event) and
  76:Drivers/STM32G0xx_HAL_Driver/Src/stm32g0xx_hal_gpio.c ****              the corresponding trigger event (rising or falling or both).
  77:Drivers/STM32G0xx_HAL_Driver/Src/stm32g0xx_hal_gpio.c **** 
  78:Drivers/STM32G0xx_HAL_Driver/Src/stm32g0xx_hal_gpio.c ****     (#) In case of external interrupt/event mode selection, configure NVIC IRQ priority
  79:Drivers/STM32G0xx_HAL_Driver/Src/stm32g0xx_hal_gpio.c ****         mapped to the EXTI line using HAL_NVIC_SetPriority() and enable it using
  80:Drivers/STM32G0xx_HAL_Driver/Src/stm32g0xx_hal_gpio.c ****         HAL_NVIC_EnableIRQ().
  81:Drivers/STM32G0xx_HAL_Driver/Src/stm32g0xx_hal_gpio.c **** 
  82:Drivers/STM32G0xx_HAL_Driver/Src/stm32g0xx_hal_gpio.c ****     (#) To get the level of a pin configured in input mode use HAL_GPIO_ReadPin().
  83:Drivers/STM32G0xx_HAL_Driver/Src/stm32g0xx_hal_gpio.c **** 
  84:Drivers/STM32G0xx_HAL_Driver/Src/stm32g0xx_hal_gpio.c ****     (#) To set/reset the level of a pin configured in output mode use
  85:Drivers/STM32G0xx_HAL_Driver/Src/stm32g0xx_hal_gpio.c ****         HAL_GPIO_WritePin()/HAL_GPIO_TogglePin().
  86:Drivers/STM32G0xx_HAL_Driver/Src/stm32g0xx_hal_gpio.c **** 
  87:Drivers/STM32G0xx_HAL_Driver/Src/stm32g0xx_hal_gpio.c ****    (#) To lock pin configuration until next reset use HAL_GPIO_LockPin().
  88:Drivers/STM32G0xx_HAL_Driver/Src/stm32g0xx_hal_gpio.c **** 
ARM GAS  /tmp/ccFfnGEb.s 			page 3


  89:Drivers/STM32G0xx_HAL_Driver/Src/stm32g0xx_hal_gpio.c ****     (#) During and just after reset, the alternate functions are not
  90:Drivers/STM32G0xx_HAL_Driver/Src/stm32g0xx_hal_gpio.c ****         active and the GPIO pins are configured in input floating mode (except JTAG
  91:Drivers/STM32G0xx_HAL_Driver/Src/stm32g0xx_hal_gpio.c ****         pins).
  92:Drivers/STM32G0xx_HAL_Driver/Src/stm32g0xx_hal_gpio.c **** 
  93:Drivers/STM32G0xx_HAL_Driver/Src/stm32g0xx_hal_gpio.c ****     (#) The LSE oscillator pins OSC32_IN and OSC32_OUT can be used as general purpose
  94:Drivers/STM32G0xx_HAL_Driver/Src/stm32g0xx_hal_gpio.c ****         (PC14 and PC15, respectively) when the LSE oscillator is off. The LSE has
  95:Drivers/STM32G0xx_HAL_Driver/Src/stm32g0xx_hal_gpio.c ****         priority over the GPIO function.
  96:Drivers/STM32G0xx_HAL_Driver/Src/stm32g0xx_hal_gpio.c **** 
  97:Drivers/STM32G0xx_HAL_Driver/Src/stm32g0xx_hal_gpio.c ****     (#) The HSE oscillator pins OSC_IN/OSC_OUT can be used as
  98:Drivers/STM32G0xx_HAL_Driver/Src/stm32g0xx_hal_gpio.c ****         general purpose PF0 and PF1, respectively, when the HSE oscillator is off.
  99:Drivers/STM32G0xx_HAL_Driver/Src/stm32g0xx_hal_gpio.c ****         The HSE has priority over the GPIO function.
 100:Drivers/STM32G0xx_HAL_Driver/Src/stm32g0xx_hal_gpio.c **** 
 101:Drivers/STM32G0xx_HAL_Driver/Src/stm32g0xx_hal_gpio.c ****   @endverbatim
 102:Drivers/STM32G0xx_HAL_Driver/Src/stm32g0xx_hal_gpio.c ****   ******************************************************************************
 103:Drivers/STM32G0xx_HAL_Driver/Src/stm32g0xx_hal_gpio.c ****   */
 104:Drivers/STM32G0xx_HAL_Driver/Src/stm32g0xx_hal_gpio.c **** 
 105:Drivers/STM32G0xx_HAL_Driver/Src/stm32g0xx_hal_gpio.c **** /* Includes ------------------------------------------------------------------*/
 106:Drivers/STM32G0xx_HAL_Driver/Src/stm32g0xx_hal_gpio.c **** #include "stm32g0xx_hal.h"
 107:Drivers/STM32G0xx_HAL_Driver/Src/stm32g0xx_hal_gpio.c **** 
 108:Drivers/STM32G0xx_HAL_Driver/Src/stm32g0xx_hal_gpio.c **** /** @addtogroup STM32G0xx_HAL_Driver
 109:Drivers/STM32G0xx_HAL_Driver/Src/stm32g0xx_hal_gpio.c ****   * @{
 110:Drivers/STM32G0xx_HAL_Driver/Src/stm32g0xx_hal_gpio.c ****   */
 111:Drivers/STM32G0xx_HAL_Driver/Src/stm32g0xx_hal_gpio.c **** 
 112:Drivers/STM32G0xx_HAL_Driver/Src/stm32g0xx_hal_gpio.c **** /** @addtogroup GPIO
 113:Drivers/STM32G0xx_HAL_Driver/Src/stm32g0xx_hal_gpio.c ****   * @{
 114:Drivers/STM32G0xx_HAL_Driver/Src/stm32g0xx_hal_gpio.c ****   */
 115:Drivers/STM32G0xx_HAL_Driver/Src/stm32g0xx_hal_gpio.c **** /** MISRA C:2012 deviation rule has been granted for following rules:
 116:Drivers/STM32G0xx_HAL_Driver/Src/stm32g0xx_hal_gpio.c ****   * Rule-12.2 - Medium: RHS argument is in interval [0,INF] which is out of
 117:Drivers/STM32G0xx_HAL_Driver/Src/stm32g0xx_hal_gpio.c ****   * range of the shift operator in following API :
 118:Drivers/STM32G0xx_HAL_Driver/Src/stm32g0xx_hal_gpio.c ****   * HAL_GPIO_Init
 119:Drivers/STM32G0xx_HAL_Driver/Src/stm32g0xx_hal_gpio.c ****   * HAL_GPIO_DeInit
 120:Drivers/STM32G0xx_HAL_Driver/Src/stm32g0xx_hal_gpio.c ****   */
 121:Drivers/STM32G0xx_HAL_Driver/Src/stm32g0xx_hal_gpio.c **** 
 122:Drivers/STM32G0xx_HAL_Driver/Src/stm32g0xx_hal_gpio.c **** #ifdef HAL_GPIO_MODULE_ENABLED
 123:Drivers/STM32G0xx_HAL_Driver/Src/stm32g0xx_hal_gpio.c **** 
 124:Drivers/STM32G0xx_HAL_Driver/Src/stm32g0xx_hal_gpio.c **** /* Private typedef -----------------------------------------------------------*/
 125:Drivers/STM32G0xx_HAL_Driver/Src/stm32g0xx_hal_gpio.c **** /* Private defines ------------------------------------------------------------*/
 126:Drivers/STM32G0xx_HAL_Driver/Src/stm32g0xx_hal_gpio.c **** /** @addtogroup GPIO_Private_Constants
 127:Drivers/STM32G0xx_HAL_Driver/Src/stm32g0xx_hal_gpio.c ****   * @{
 128:Drivers/STM32G0xx_HAL_Driver/Src/stm32g0xx_hal_gpio.c ****   */
 129:Drivers/STM32G0xx_HAL_Driver/Src/stm32g0xx_hal_gpio.c **** #define GPIO_NUMBER           (16u)
 130:Drivers/STM32G0xx_HAL_Driver/Src/stm32g0xx_hal_gpio.c **** /**
 131:Drivers/STM32G0xx_HAL_Driver/Src/stm32g0xx_hal_gpio.c ****   * @}
 132:Drivers/STM32G0xx_HAL_Driver/Src/stm32g0xx_hal_gpio.c ****   */
 133:Drivers/STM32G0xx_HAL_Driver/Src/stm32g0xx_hal_gpio.c **** 
 134:Drivers/STM32G0xx_HAL_Driver/Src/stm32g0xx_hal_gpio.c **** /* Private macros ------------------------------------------------------------*/
 135:Drivers/STM32G0xx_HAL_Driver/Src/stm32g0xx_hal_gpio.c **** /* Private variables ---------------------------------------------------------*/
 136:Drivers/STM32G0xx_HAL_Driver/Src/stm32g0xx_hal_gpio.c **** /* Private function prototypes -----------------------------------------------*/
 137:Drivers/STM32G0xx_HAL_Driver/Src/stm32g0xx_hal_gpio.c **** /* Exported functions --------------------------------------------------------*/
 138:Drivers/STM32G0xx_HAL_Driver/Src/stm32g0xx_hal_gpio.c **** 
 139:Drivers/STM32G0xx_HAL_Driver/Src/stm32g0xx_hal_gpio.c **** /** @addtogroup GPIO_Exported_Functions
 140:Drivers/STM32G0xx_HAL_Driver/Src/stm32g0xx_hal_gpio.c ****   * @{
 141:Drivers/STM32G0xx_HAL_Driver/Src/stm32g0xx_hal_gpio.c ****   */
 142:Drivers/STM32G0xx_HAL_Driver/Src/stm32g0xx_hal_gpio.c **** 
 143:Drivers/STM32G0xx_HAL_Driver/Src/stm32g0xx_hal_gpio.c **** /** @addtogroup GPIO_Exported_Functions_Group1
 144:Drivers/STM32G0xx_HAL_Driver/Src/stm32g0xx_hal_gpio.c ****  *  @brief    Initialization and Configuration functions
 145:Drivers/STM32G0xx_HAL_Driver/Src/stm32g0xx_hal_gpio.c ****  *
ARM GAS  /tmp/ccFfnGEb.s 			page 4


 146:Drivers/STM32G0xx_HAL_Driver/Src/stm32g0xx_hal_gpio.c **** @verbatim
 147:Drivers/STM32G0xx_HAL_Driver/Src/stm32g0xx_hal_gpio.c ****  ===============================================================================
 148:Drivers/STM32G0xx_HAL_Driver/Src/stm32g0xx_hal_gpio.c ****               ##### Initialization and de-initialization functions #####
 149:Drivers/STM32G0xx_HAL_Driver/Src/stm32g0xx_hal_gpio.c ****  ===============================================================================
 150:Drivers/STM32G0xx_HAL_Driver/Src/stm32g0xx_hal_gpio.c **** 
 151:Drivers/STM32G0xx_HAL_Driver/Src/stm32g0xx_hal_gpio.c **** @endverbatim
 152:Drivers/STM32G0xx_HAL_Driver/Src/stm32g0xx_hal_gpio.c ****   * @{
 153:Drivers/STM32G0xx_HAL_Driver/Src/stm32g0xx_hal_gpio.c ****   */
 154:Drivers/STM32G0xx_HAL_Driver/Src/stm32g0xx_hal_gpio.c **** 
 155:Drivers/STM32G0xx_HAL_Driver/Src/stm32g0xx_hal_gpio.c **** /**
 156:Drivers/STM32G0xx_HAL_Driver/Src/stm32g0xx_hal_gpio.c ****   * @brief  Initialize the GPIOx peripheral according to the specified parameters in the GPIO_Init.
 157:Drivers/STM32G0xx_HAL_Driver/Src/stm32g0xx_hal_gpio.c ****   * @param  GPIOx where x can be (A..F) to select the GPIO peripheral for STM32G0xx family
 158:Drivers/STM32G0xx_HAL_Driver/Src/stm32g0xx_hal_gpio.c ****   * @param  GPIO_Init pointer to a GPIO_InitTypeDef structure that contains
 159:Drivers/STM32G0xx_HAL_Driver/Src/stm32g0xx_hal_gpio.c ****   *         the configuration information for the specified GPIO peripheral.
 160:Drivers/STM32G0xx_HAL_Driver/Src/stm32g0xx_hal_gpio.c ****   * @retval None
 161:Drivers/STM32G0xx_HAL_Driver/Src/stm32g0xx_hal_gpio.c ****   */
 162:Drivers/STM32G0xx_HAL_Driver/Src/stm32g0xx_hal_gpio.c **** void HAL_GPIO_Init(GPIO_TypeDef  *GPIOx, GPIO_InitTypeDef *GPIO_Init)
 163:Drivers/STM32G0xx_HAL_Driver/Src/stm32g0xx_hal_gpio.c **** {
  28              		.loc 1 163 1 view -0
  29              		.cfi_startproc
  30              		@ args = 0, pretend = 0, frame = 0
  31              		@ frame_needed = 0, uses_anonymous_args = 0
  32              		.loc 1 163 1 is_stmt 0 view .LVU1
  33 0000 F0B5     		push	{r4, r5, r6, r7, lr}
  34              	.LCFI0:
  35              		.cfi_def_cfa_offset 20
  36              		.cfi_offset 4, -20
  37              		.cfi_offset 5, -16
  38              		.cfi_offset 6, -12
  39              		.cfi_offset 7, -8
  40              		.cfi_offset 14, -4
 164:Drivers/STM32G0xx_HAL_Driver/Src/stm32g0xx_hal_gpio.c ****   uint32_t position = 0x00u;
  41              		.loc 1 164 3 is_stmt 1 view .LVU2
  42              	.LVL1:
 165:Drivers/STM32G0xx_HAL_Driver/Src/stm32g0xx_hal_gpio.c ****   uint32_t iocurrent;
  43              		.loc 1 165 3 view .LVU3
 166:Drivers/STM32G0xx_HAL_Driver/Src/stm32g0xx_hal_gpio.c ****   uint32_t temp;
  44              		.loc 1 166 3 view .LVU4
 167:Drivers/STM32G0xx_HAL_Driver/Src/stm32g0xx_hal_gpio.c **** 
 168:Drivers/STM32G0xx_HAL_Driver/Src/stm32g0xx_hal_gpio.c ****   /* Check the parameters */
 169:Drivers/STM32G0xx_HAL_Driver/Src/stm32g0xx_hal_gpio.c ****   assert_param(IS_GPIO_ALL_INSTANCE(GPIOx));
  45              		.loc 1 169 3 view .LVU5
 170:Drivers/STM32G0xx_HAL_Driver/Src/stm32g0xx_hal_gpio.c ****   assert_param(IS_GPIO_PIN(GPIO_Init->Pin));
  46              		.loc 1 170 3 view .LVU6
 171:Drivers/STM32G0xx_HAL_Driver/Src/stm32g0xx_hal_gpio.c ****   assert_param(IS_GPIO_MODE(GPIO_Init->Mode));
  47              		.loc 1 171 3 view .LVU7
 172:Drivers/STM32G0xx_HAL_Driver/Src/stm32g0xx_hal_gpio.c **** 
 173:Drivers/STM32G0xx_HAL_Driver/Src/stm32g0xx_hal_gpio.c ****   /* Configure the port pins */
 174:Drivers/STM32G0xx_HAL_Driver/Src/stm32g0xx_hal_gpio.c ****   while (((GPIO_Init->Pin) >> position) != 0x00u)
  48              		.loc 1 174 3 view .LVU8
 164:Drivers/STM32G0xx_HAL_Driver/Src/stm32g0xx_hal_gpio.c ****   uint32_t iocurrent;
  49              		.loc 1 164 12 is_stmt 0 view .LVU9
  50 0002 0023     		movs	r3, #0
  51              		.loc 1 174 9 view .LVU10
  52 0004 59E0     		b	.L2
  53              	.LVL2:
  54              	.L22:
ARM GAS  /tmp/ccFfnGEb.s 			page 5


 175:Drivers/STM32G0xx_HAL_Driver/Src/stm32g0xx_hal_gpio.c ****   {
 176:Drivers/STM32G0xx_HAL_Driver/Src/stm32g0xx_hal_gpio.c ****     /* Get current io position */
 177:Drivers/STM32G0xx_HAL_Driver/Src/stm32g0xx_hal_gpio.c ****     iocurrent = (GPIO_Init->Pin) & (1uL << position);
 178:Drivers/STM32G0xx_HAL_Driver/Src/stm32g0xx_hal_gpio.c **** 
 179:Drivers/STM32G0xx_HAL_Driver/Src/stm32g0xx_hal_gpio.c ****     if (iocurrent != 0x00u)
 180:Drivers/STM32G0xx_HAL_Driver/Src/stm32g0xx_hal_gpio.c ****     {
 181:Drivers/STM32G0xx_HAL_Driver/Src/stm32g0xx_hal_gpio.c ****       /*--------------------- GPIO Mode Configuration ------------------------*/
 182:Drivers/STM32G0xx_HAL_Driver/Src/stm32g0xx_hal_gpio.c ****       /* In case of Output or Alternate function mode selection */
 183:Drivers/STM32G0xx_HAL_Driver/Src/stm32g0xx_hal_gpio.c ****       if (((GPIO_Init->Mode & GPIO_MODE) == MODE_OUTPUT) || ((GPIO_Init->Mode & GPIO_MODE) == MODE_
 184:Drivers/STM32G0xx_HAL_Driver/Src/stm32g0xx_hal_gpio.c ****       {
 185:Drivers/STM32G0xx_HAL_Driver/Src/stm32g0xx_hal_gpio.c ****         /* Check the Speed parameter */
 186:Drivers/STM32G0xx_HAL_Driver/Src/stm32g0xx_hal_gpio.c ****         assert_param(IS_GPIO_SPEED(GPIO_Init->Speed));
  55              		.loc 1 186 9 is_stmt 1 view .LVU11
 187:Drivers/STM32G0xx_HAL_Driver/Src/stm32g0xx_hal_gpio.c **** 
 188:Drivers/STM32G0xx_HAL_Driver/Src/stm32g0xx_hal_gpio.c ****         /* Configure the IO Speed */
 189:Drivers/STM32G0xx_HAL_Driver/Src/stm32g0xx_hal_gpio.c ****         temp = GPIOx->OSPEEDR;
  56              		.loc 1 189 9 view .LVU12
  57              		.loc 1 189 14 is_stmt 0 view .LVU13
  58 0006 8668     		ldr	r6, [r0, #8]
  59              	.LVL3:
 190:Drivers/STM32G0xx_HAL_Driver/Src/stm32g0xx_hal_gpio.c ****         temp &= ~(GPIO_OSPEEDR_OSPEED0 << (position * 2u));
  60              		.loc 1 190 9 is_stmt 1 view .LVU14
  61              		.loc 1 190 53 is_stmt 0 view .LVU15
  62 0008 5F00     		lsls	r7, r3, #1
  63              		.loc 1 190 40 view .LVU16
  64 000a 0324     		movs	r4, #3
  65 000c BC40     		lsls	r4, r4, r7
  66              		.loc 1 190 14 view .LVU17
  67 000e A643     		bics	r6, r4
  68              	.LVL4:
 191:Drivers/STM32G0xx_HAL_Driver/Src/stm32g0xx_hal_gpio.c ****         temp |= (GPIO_Init->Speed << (position * 2u));
  69              		.loc 1 191 9 is_stmt 1 view .LVU18
  70              		.loc 1 191 27 is_stmt 0 view .LVU19
  71 0010 CC68     		ldr	r4, [r1, #12]
  72              		.loc 1 191 35 view .LVU20
  73 0012 BC40     		lsls	r4, r4, r7
  74              		.loc 1 191 14 view .LVU21
  75 0014 3443     		orrs	r4, r6
  76              	.LVL5:
 192:Drivers/STM32G0xx_HAL_Driver/Src/stm32g0xx_hal_gpio.c ****         GPIOx->OSPEEDR = temp;
  77              		.loc 1 192 9 is_stmt 1 view .LVU22
  78              		.loc 1 192 24 is_stmt 0 view .LVU23
  79 0016 8460     		str	r4, [r0, #8]
 193:Drivers/STM32G0xx_HAL_Driver/Src/stm32g0xx_hal_gpio.c **** 
 194:Drivers/STM32G0xx_HAL_Driver/Src/stm32g0xx_hal_gpio.c ****         /* Configure the IO Output Type */
 195:Drivers/STM32G0xx_HAL_Driver/Src/stm32g0xx_hal_gpio.c ****         temp = GPIOx->OTYPER;
  80              		.loc 1 195 9 is_stmt 1 view .LVU24
  81              		.loc 1 195 14 is_stmt 0 view .LVU25
  82 0018 4468     		ldr	r4, [r0, #4]
  83              	.LVL6:
 196:Drivers/STM32G0xx_HAL_Driver/Src/stm32g0xx_hal_gpio.c ****         temp &= ~(GPIO_OTYPER_OT0 << position) ;
  84              		.loc 1 196 9 is_stmt 1 view .LVU26
  85              		.loc 1 196 14 is_stmt 0 view .LVU27
  86 001a 9443     		bics	r4, r2
  87              	.LVL7:
 197:Drivers/STM32G0xx_HAL_Driver/Src/stm32g0xx_hal_gpio.c ****         temp |= (((GPIO_Init->Mode & OUTPUT_TYPE) >> OUTPUT_TYPE_Pos) << position);
  88              		.loc 1 197 9 is_stmt 1 view .LVU28
ARM GAS  /tmp/ccFfnGEb.s 			page 6


  89              		.loc 1 197 29 is_stmt 0 view .LVU29
  90 001c 4E68     		ldr	r6, [r1, #4]
  91              		.loc 1 197 51 view .LVU30
  92 001e 3609     		lsrs	r6, r6, #4
  93 0020 0122     		movs	r2, #1
  94 0022 3240     		ands	r2, r6
  95              		.loc 1 197 71 view .LVU31
  96 0024 9A40     		lsls	r2, r2, r3
  97              		.loc 1 197 14 view .LVU32
  98 0026 2243     		orrs	r2, r4
  99              	.LVL8:
 198:Drivers/STM32G0xx_HAL_Driver/Src/stm32g0xx_hal_gpio.c ****         GPIOx->OTYPER = temp;
 100              		.loc 1 198 9 is_stmt 1 view .LVU33
 101              		.loc 1 198 23 is_stmt 0 view .LVU34
 102 0028 4260     		str	r2, [r0, #4]
 103 002a 56E0     		b	.L4
 104              	.LVL9:
 105              	.L23:
 199:Drivers/STM32G0xx_HAL_Driver/Src/stm32g0xx_hal_gpio.c ****       }
 200:Drivers/STM32G0xx_HAL_Driver/Src/stm32g0xx_hal_gpio.c **** 
 201:Drivers/STM32G0xx_HAL_Driver/Src/stm32g0xx_hal_gpio.c ****       if ((GPIO_Init->Mode & GPIO_MODE) != MODE_ANALOG)
 202:Drivers/STM32G0xx_HAL_Driver/Src/stm32g0xx_hal_gpio.c ****       {
 203:Drivers/STM32G0xx_HAL_Driver/Src/stm32g0xx_hal_gpio.c ****         /* Check the Pull parameter */
 204:Drivers/STM32G0xx_HAL_Driver/Src/stm32g0xx_hal_gpio.c ****         assert_param(IS_GPIO_PULL(GPIO_Init->Pull));
 205:Drivers/STM32G0xx_HAL_Driver/Src/stm32g0xx_hal_gpio.c **** 
 206:Drivers/STM32G0xx_HAL_Driver/Src/stm32g0xx_hal_gpio.c ****         /* Activate the Pull-up or Pull down resistor for the current IO */
 207:Drivers/STM32G0xx_HAL_Driver/Src/stm32g0xx_hal_gpio.c ****         temp = GPIOx->PUPDR;
 208:Drivers/STM32G0xx_HAL_Driver/Src/stm32g0xx_hal_gpio.c ****         temp &= ~(GPIO_PUPDR_PUPD0 << (position * 2u));
 209:Drivers/STM32G0xx_HAL_Driver/Src/stm32g0xx_hal_gpio.c ****         temp |= ((GPIO_Init->Pull) << (position * 2u));
 210:Drivers/STM32G0xx_HAL_Driver/Src/stm32g0xx_hal_gpio.c ****         GPIOx->PUPDR = temp;
 211:Drivers/STM32G0xx_HAL_Driver/Src/stm32g0xx_hal_gpio.c ****       }
 212:Drivers/STM32G0xx_HAL_Driver/Src/stm32g0xx_hal_gpio.c **** 
 213:Drivers/STM32G0xx_HAL_Driver/Src/stm32g0xx_hal_gpio.c ****       /* In case of Alternate function mode selection */
 214:Drivers/STM32G0xx_HAL_Driver/Src/stm32g0xx_hal_gpio.c ****       if ((GPIO_Init->Mode & GPIO_MODE) == MODE_AF)
 215:Drivers/STM32G0xx_HAL_Driver/Src/stm32g0xx_hal_gpio.c ****       {
 216:Drivers/STM32G0xx_HAL_Driver/Src/stm32g0xx_hal_gpio.c ****         /* Check the Alternate function parameters */
 217:Drivers/STM32G0xx_HAL_Driver/Src/stm32g0xx_hal_gpio.c ****         assert_param(IS_GPIO_AF_INSTANCE(GPIOx));
 106              		.loc 1 217 9 is_stmt 1 view .LVU35
 218:Drivers/STM32G0xx_HAL_Driver/Src/stm32g0xx_hal_gpio.c ****         assert_param(IS_GPIO_AF(GPIO_Init->Alternate));
 107              		.loc 1 218 9 view .LVU36
 219:Drivers/STM32G0xx_HAL_Driver/Src/stm32g0xx_hal_gpio.c **** 
 220:Drivers/STM32G0xx_HAL_Driver/Src/stm32g0xx_hal_gpio.c ****         /* Configure Alternate function mapped with the current IO */
 221:Drivers/STM32G0xx_HAL_Driver/Src/stm32g0xx_hal_gpio.c ****         temp = GPIOx->AFR[position >> 3u];
 108              		.loc 1 221 9 view .LVU37
 109              		.loc 1 221 36 is_stmt 0 view .LVU38
 110 002c DE08     		lsrs	r6, r3, #3
 111              		.loc 1 221 14 view .LVU39
 112 002e 0836     		adds	r6, r6, #8
 113 0030 B600     		lsls	r6, r6, #2
 114 0032 3758     		ldr	r7, [r6, r0]
 115              	.LVL10:
 222:Drivers/STM32G0xx_HAL_Driver/Src/stm32g0xx_hal_gpio.c ****         temp &= ~(0xFu << ((position & 0x07u) * 4u));
 116              		.loc 1 222 9 is_stmt 1 view .LVU40
 117              		.loc 1 222 38 is_stmt 0 view .LVU41
 118 0034 0532     		adds	r2, r2, #5
 119 0036 1A40     		ands	r2, r3
 120              		.loc 1 222 47 view .LVU42
ARM GAS  /tmp/ccFfnGEb.s 			page 7


 121 0038 9200     		lsls	r2, r2, #2
 122              		.loc 1 222 24 view .LVU43
 123 003a 0F24     		movs	r4, #15
 124 003c 9440     		lsls	r4, r4, r2
 125              		.loc 1 222 14 view .LVU44
 126 003e A743     		bics	r7, r4
 127              	.LVL11:
 223:Drivers/STM32G0xx_HAL_Driver/Src/stm32g0xx_hal_gpio.c ****         temp |= ((GPIO_Init->Alternate) << ((position & 0x07u) * 4u));
 128              		.loc 1 223 9 is_stmt 1 view .LVU45
 129              		.loc 1 223 28 is_stmt 0 view .LVU46
 130 0040 0C69     		ldr	r4, [r1, #16]
 131              		.loc 1 223 41 view .LVU47
 132 0042 9440     		lsls	r4, r4, r2
 133 0044 2200     		movs	r2, r4
 134              		.loc 1 223 14 view .LVU48
 135 0046 3A43     		orrs	r2, r7
 136              	.LVL12:
 224:Drivers/STM32G0xx_HAL_Driver/Src/stm32g0xx_hal_gpio.c ****         GPIOx->AFR[position >> 3u] = temp;
 137              		.loc 1 224 9 is_stmt 1 view .LVU49
 138              		.loc 1 224 36 is_stmt 0 view .LVU50
 139 0048 3250     		str	r2, [r6, r0]
 140 004a 59E0     		b	.L6
 141              	.LVL13:
 142              	.L24:
 225:Drivers/STM32G0xx_HAL_Driver/Src/stm32g0xx_hal_gpio.c ****       }
 226:Drivers/STM32G0xx_HAL_Driver/Src/stm32g0xx_hal_gpio.c **** 
 227:Drivers/STM32G0xx_HAL_Driver/Src/stm32g0xx_hal_gpio.c ****       /* Configure IO Direction mode (Input, Output, Alternate or Analog) */
 228:Drivers/STM32G0xx_HAL_Driver/Src/stm32g0xx_hal_gpio.c ****       temp = GPIOx->MODER;
 229:Drivers/STM32G0xx_HAL_Driver/Src/stm32g0xx_hal_gpio.c ****       temp &= ~(GPIO_MODER_MODE0 << (position * 2u));
 230:Drivers/STM32G0xx_HAL_Driver/Src/stm32g0xx_hal_gpio.c ****       temp |= ((GPIO_Init->Mode & GPIO_MODE) << (position * 2u));
 231:Drivers/STM32G0xx_HAL_Driver/Src/stm32g0xx_hal_gpio.c ****       GPIOx->MODER = temp;
 232:Drivers/STM32G0xx_HAL_Driver/Src/stm32g0xx_hal_gpio.c **** 
 233:Drivers/STM32G0xx_HAL_Driver/Src/stm32g0xx_hal_gpio.c ****       /*--------------------- EXTI Mode Configuration ------------------------*/
 234:Drivers/STM32G0xx_HAL_Driver/Src/stm32g0xx_hal_gpio.c ****       /* Configure the External Interrupt or event for the current IO */
 235:Drivers/STM32G0xx_HAL_Driver/Src/stm32g0xx_hal_gpio.c ****       if ((GPIO_Init->Mode & EXTI_MODE) != 0x00u)
 236:Drivers/STM32G0xx_HAL_Driver/Src/stm32g0xx_hal_gpio.c ****       {
 237:Drivers/STM32G0xx_HAL_Driver/Src/stm32g0xx_hal_gpio.c ****         temp = EXTI->EXTICR[position >> 2u];
 238:Drivers/STM32G0xx_HAL_Driver/Src/stm32g0xx_hal_gpio.c ****         temp &= ~(0x0FuL << (8u * (position & 0x03u)));
 239:Drivers/STM32G0xx_HAL_Driver/Src/stm32g0xx_hal_gpio.c ****         temp |= (GPIO_GET_INDEX(GPIOx) << (8u * (position & 0x03u)));
 143              		.loc 1 239 18 discriminator 7 view .LVU51
 144 004c 0326     		movs	r6, #3
 145 004e 00E0     		b	.L7
 146              	.L13:
 147              		.loc 1 239 18 discriminator 2 view .LVU52
 148 0050 0026     		movs	r6, #0
 149              	.L7:
 150              		.loc 1 239 40 discriminator 16 view .LVU53
 151 0052 A640     		lsls	r6, r6, r4
 152 0054 3400     		movs	r4, r6
 153              		.loc 1 239 14 discriminator 16 view .LVU54
 154 0056 3C43     		orrs	r4, r7
 155              	.LVL14:
 240:Drivers/STM32G0xx_HAL_Driver/Src/stm32g0xx_hal_gpio.c ****         EXTI->EXTICR[position >> 2u] = temp;
 156              		.loc 1 240 9 is_stmt 1 view .LVU55
 157              		.loc 1 240 38 is_stmt 0 view .LVU56
 158 0058 424E     		ldr	r6, .L25
 159 005a 1832     		adds	r2, r2, #24
ARM GAS  /tmp/ccFfnGEb.s 			page 8


 160 005c 9200     		lsls	r2, r2, #2
 161 005e 9451     		str	r4, [r2, r6]
 241:Drivers/STM32G0xx_HAL_Driver/Src/stm32g0xx_hal_gpio.c **** 
 242:Drivers/STM32G0xx_HAL_Driver/Src/stm32g0xx_hal_gpio.c ****         /* Clear Rising Falling edge configuration */
 243:Drivers/STM32G0xx_HAL_Driver/Src/stm32g0xx_hal_gpio.c ****         temp = EXTI->RTSR1;
 162              		.loc 1 243 9 is_stmt 1 view .LVU57
 163              		.loc 1 243 14 is_stmt 0 view .LVU58
 164 0060 3768     		ldr	r7, [r6]
 165              	.LVL15:
 244:Drivers/STM32G0xx_HAL_Driver/Src/stm32g0xx_hal_gpio.c ****         temp &= ~(iocurrent);
 166              		.loc 1 244 9 is_stmt 1 view .LVU59
 167              		.loc 1 244 17 is_stmt 0 view .LVU60
 168 0062 EA43     		mvns	r2, r5
 169              		.loc 1 244 14 view .LVU61
 170 0064 3E00     		movs	r6, r7
 171 0066 AE43     		bics	r6, r5
 172              	.LVL16:
 245:Drivers/STM32G0xx_HAL_Driver/Src/stm32g0xx_hal_gpio.c ****         if ((GPIO_Init->Mode & TRIGGER_RISING) != 0x00u)
 173              		.loc 1 245 9 is_stmt 1 view .LVU62
 174              		.loc 1 245 23 is_stmt 0 view .LVU63
 175 0068 4C68     		ldr	r4, [r1, #4]
 176              		.loc 1 245 12 view .LVU64
 177 006a E402     		lsls	r4, r4, #11
 178 006c 01D5     		bpl	.L8
 246:Drivers/STM32G0xx_HAL_Driver/Src/stm32g0xx_hal_gpio.c ****         {
 247:Drivers/STM32G0xx_HAL_Driver/Src/stm32g0xx_hal_gpio.c ****           temp |= iocurrent;
 179              		.loc 1 247 11 is_stmt 1 view .LVU65
 180              		.loc 1 247 16 is_stmt 0 view .LVU66
 181 006e 3E00     		movs	r6, r7
 182              	.LVL17:
 183              		.loc 1 247 16 view .LVU67
 184 0070 2E43     		orrs	r6, r5
 185              	.L8:
 186              	.LVL18:
 248:Drivers/STM32G0xx_HAL_Driver/Src/stm32g0xx_hal_gpio.c ****         }
 249:Drivers/STM32G0xx_HAL_Driver/Src/stm32g0xx_hal_gpio.c ****         EXTI->RTSR1 = temp;
 187              		.loc 1 249 9 is_stmt 1 view .LVU68
 188              		.loc 1 249 21 is_stmt 0 view .LVU69
 189 0072 3C4C     		ldr	r4, .L25
 190 0074 2660     		str	r6, [r4]
 250:Drivers/STM32G0xx_HAL_Driver/Src/stm32g0xx_hal_gpio.c **** 
 251:Drivers/STM32G0xx_HAL_Driver/Src/stm32g0xx_hal_gpio.c ****         temp = EXTI->FTSR1;
 191              		.loc 1 251 9 is_stmt 1 view .LVU70
 192              		.loc 1 251 14 is_stmt 0 view .LVU71
 193 0076 6768     		ldr	r7, [r4, #4]
 194              	.LVL19:
 252:Drivers/STM32G0xx_HAL_Driver/Src/stm32g0xx_hal_gpio.c ****         temp &= ~(iocurrent);
 195              		.loc 1 252 9 is_stmt 1 view .LVU72
 196              		.loc 1 252 14 is_stmt 0 view .LVU73
 197 0078 3E00     		movs	r6, r7
 198 007a 1640     		ands	r6, r2
 199              	.LVL20:
 253:Drivers/STM32G0xx_HAL_Driver/Src/stm32g0xx_hal_gpio.c ****         if ((GPIO_Init->Mode & TRIGGER_FALLING) != 0x00u)
 200              		.loc 1 253 9 is_stmt 1 view .LVU74
 201              		.loc 1 253 23 is_stmt 0 view .LVU75
 202 007c 4C68     		ldr	r4, [r1, #4]
 203              		.loc 1 253 12 view .LVU76
ARM GAS  /tmp/ccFfnGEb.s 			page 9


 204 007e A402     		lsls	r4, r4, #10
 205 0080 01D5     		bpl	.L9
 254:Drivers/STM32G0xx_HAL_Driver/Src/stm32g0xx_hal_gpio.c ****         {
 255:Drivers/STM32G0xx_HAL_Driver/Src/stm32g0xx_hal_gpio.c ****           temp |= iocurrent;
 206              		.loc 1 255 11 is_stmt 1 view .LVU77
 207              		.loc 1 255 16 is_stmt 0 view .LVU78
 208 0082 3E00     		movs	r6, r7
 209              	.LVL21:
 210              		.loc 1 255 16 view .LVU79
 211 0084 2E43     		orrs	r6, r5
 212              	.L9:
 213              	.LVL22:
 256:Drivers/STM32G0xx_HAL_Driver/Src/stm32g0xx_hal_gpio.c ****         }
 257:Drivers/STM32G0xx_HAL_Driver/Src/stm32g0xx_hal_gpio.c ****         EXTI->FTSR1 = temp;
 214              		.loc 1 257 9 is_stmt 1 view .LVU80
 215              		.loc 1 257 21 is_stmt 0 view .LVU81
 216 0086 374C     		ldr	r4, .L25
 217 0088 6660     		str	r6, [r4, #4]
 258:Drivers/STM32G0xx_HAL_Driver/Src/stm32g0xx_hal_gpio.c **** 
 259:Drivers/STM32G0xx_HAL_Driver/Src/stm32g0xx_hal_gpio.c ****         /* Clear EXTI line configuration */
 260:Drivers/STM32G0xx_HAL_Driver/Src/stm32g0xx_hal_gpio.c ****         temp = EXTI->EMR1;
 218              		.loc 1 260 9 is_stmt 1 view .LVU82
 219              		.loc 1 260 14 is_stmt 0 view .LVU83
 220 008a 8426     		movs	r6, #132
 221              	.LVL23:
 222              		.loc 1 260 14 view .LVU84
 223 008c A759     		ldr	r7, [r4, r6]
 224              	.LVL24:
 261:Drivers/STM32G0xx_HAL_Driver/Src/stm32g0xx_hal_gpio.c ****         temp &= ~(iocurrent);
 225              		.loc 1 261 9 is_stmt 1 view .LVU85
 226              		.loc 1 261 14 is_stmt 0 view .LVU86
 227 008e 3E00     		movs	r6, r7
 228 0090 1640     		ands	r6, r2
 229              	.LVL25:
 262:Drivers/STM32G0xx_HAL_Driver/Src/stm32g0xx_hal_gpio.c ****         if ((GPIO_Init->Mode & EXTI_EVT) != 0x00u)
 230              		.loc 1 262 9 is_stmt 1 view .LVU87
 231              		.loc 1 262 23 is_stmt 0 view .LVU88
 232 0092 4C68     		ldr	r4, [r1, #4]
 233              		.loc 1 262 12 view .LVU89
 234 0094 A403     		lsls	r4, r4, #14
 235 0096 01D5     		bpl	.L10
 263:Drivers/STM32G0xx_HAL_Driver/Src/stm32g0xx_hal_gpio.c ****         {
 264:Drivers/STM32G0xx_HAL_Driver/Src/stm32g0xx_hal_gpio.c ****           temp |= iocurrent;
 236              		.loc 1 264 11 is_stmt 1 view .LVU90
 237              		.loc 1 264 16 is_stmt 0 view .LVU91
 238 0098 3E00     		movs	r6, r7
 239              	.LVL26:
 240              		.loc 1 264 16 view .LVU92
 241 009a 2E43     		orrs	r6, r5
 242              	.L10:
 243              	.LVL27:
 265:Drivers/STM32G0xx_HAL_Driver/Src/stm32g0xx_hal_gpio.c ****         }
 266:Drivers/STM32G0xx_HAL_Driver/Src/stm32g0xx_hal_gpio.c ****         EXTI->EMR1 = temp;
 244              		.loc 1 266 9 is_stmt 1 view .LVU93
 245              		.loc 1 266 20 is_stmt 0 view .LVU94
 246 009c 314C     		ldr	r4, .L25
 247 009e 8427     		movs	r7, #132
ARM GAS  /tmp/ccFfnGEb.s 			page 10


 248 00a0 E651     		str	r6, [r4, r7]
 267:Drivers/STM32G0xx_HAL_Driver/Src/stm32g0xx_hal_gpio.c **** 
 268:Drivers/STM32G0xx_HAL_Driver/Src/stm32g0xx_hal_gpio.c ****         temp = EXTI->IMR1;
 249              		.loc 1 268 9 is_stmt 1 view .LVU95
 250              		.loc 1 268 14 is_stmt 0 view .LVU96
 251 00a2 8026     		movs	r6, #128
 252              	.LVL28:
 253              		.loc 1 268 14 view .LVU97
 254 00a4 A659     		ldr	r6, [r4, r6]
 255              	.LVL29:
 269:Drivers/STM32G0xx_HAL_Driver/Src/stm32g0xx_hal_gpio.c ****         temp &= ~(iocurrent);
 256              		.loc 1 269 9 is_stmt 1 view .LVU98
 257              		.loc 1 269 14 is_stmt 0 view .LVU99
 258 00a6 3240     		ands	r2, r6
 259              	.LVL30:
 270:Drivers/STM32G0xx_HAL_Driver/Src/stm32g0xx_hal_gpio.c ****         if ((GPIO_Init->Mode & EXTI_IT) != 0x00u)
 260              		.loc 1 270 9 is_stmt 1 view .LVU100
 261              		.loc 1 270 23 is_stmt 0 view .LVU101
 262 00a8 4C68     		ldr	r4, [r1, #4]
 263              		.loc 1 270 12 view .LVU102
 264 00aa E403     		lsls	r4, r4, #15
 265 00ac 01D5     		bpl	.L11
 271:Drivers/STM32G0xx_HAL_Driver/Src/stm32g0xx_hal_gpio.c ****         {
 272:Drivers/STM32G0xx_HAL_Driver/Src/stm32g0xx_hal_gpio.c ****           temp |= iocurrent;
 266              		.loc 1 272 11 is_stmt 1 view .LVU103
 267              		.loc 1 272 16 is_stmt 0 view .LVU104
 268 00ae 2A00     		movs	r2, r5
 269              	.LVL31:
 270              		.loc 1 272 16 view .LVU105
 271 00b0 3243     		orrs	r2, r6
 272              	.L11:
 273              	.LVL32:
 273:Drivers/STM32G0xx_HAL_Driver/Src/stm32g0xx_hal_gpio.c ****         }
 274:Drivers/STM32G0xx_HAL_Driver/Src/stm32g0xx_hal_gpio.c ****         EXTI->IMR1 = temp;
 274              		.loc 1 274 9 is_stmt 1 view .LVU106
 275              		.loc 1 274 20 is_stmt 0 view .LVU107
 276 00b2 2C4D     		ldr	r5, .L25
 277              	.LVL33:
 278              		.loc 1 274 20 view .LVU108
 279 00b4 8024     		movs	r4, #128
 280 00b6 2A51     		str	r2, [r5, r4]
 281              	.LVL34:
 282              	.L3:
 275:Drivers/STM32G0xx_HAL_Driver/Src/stm32g0xx_hal_gpio.c ****       }
 276:Drivers/STM32G0xx_HAL_Driver/Src/stm32g0xx_hal_gpio.c ****     }
 277:Drivers/STM32G0xx_HAL_Driver/Src/stm32g0xx_hal_gpio.c **** 
 278:Drivers/STM32G0xx_HAL_Driver/Src/stm32g0xx_hal_gpio.c ****     position++;
 283              		.loc 1 278 5 is_stmt 1 view .LVU109
 284              		.loc 1 278 13 is_stmt 0 view .LVU110
 285 00b8 0133     		adds	r3, r3, #1
 286              	.LVL35:
 287              	.L2:
 174:Drivers/STM32G0xx_HAL_Driver/Src/stm32g0xx_hal_gpio.c ****   {
 288              		.loc 1 174 41 is_stmt 1 view .LVU111
 174:Drivers/STM32G0xx_HAL_Driver/Src/stm32g0xx_hal_gpio.c ****   {
 289              		.loc 1 174 21 is_stmt 0 view .LVU112
 290 00ba 0C68     		ldr	r4, [r1]
ARM GAS  /tmp/ccFfnGEb.s 			page 11


 174:Drivers/STM32G0xx_HAL_Driver/Src/stm32g0xx_hal_gpio.c ****   {
 291              		.loc 1 174 28 view .LVU113
 292 00bc 2200     		movs	r2, r4
 293 00be DA40     		lsrs	r2, r2, r3
 174:Drivers/STM32G0xx_HAL_Driver/Src/stm32g0xx_hal_gpio.c ****   {
 294              		.loc 1 174 41 view .LVU114
 295 00c0 4ED0     		beq	.L21
 177:Drivers/STM32G0xx_HAL_Driver/Src/stm32g0xx_hal_gpio.c **** 
 296              		.loc 1 177 5 is_stmt 1 view .LVU115
 177:Drivers/STM32G0xx_HAL_Driver/Src/stm32g0xx_hal_gpio.c **** 
 297              		.loc 1 177 41 is_stmt 0 view .LVU116
 298 00c2 0122     		movs	r2, #1
 299 00c4 9A40     		lsls	r2, r2, r3
 177:Drivers/STM32G0xx_HAL_Driver/Src/stm32g0xx_hal_gpio.c **** 
 300              		.loc 1 177 15 view .LVU117
 301 00c6 2500     		movs	r5, r4
 302 00c8 1540     		ands	r5, r2
 303              	.LVL36:
 179:Drivers/STM32G0xx_HAL_Driver/Src/stm32g0xx_hal_gpio.c ****     {
 304              		.loc 1 179 5 is_stmt 1 view .LVU118
 179:Drivers/STM32G0xx_HAL_Driver/Src/stm32g0xx_hal_gpio.c ****     {
 305              		.loc 1 179 8 is_stmt 0 view .LVU119
 306 00ca 1442     		tst	r4, r2
 307 00cc F4D0     		beq	.L3
 183:Drivers/STM32G0xx_HAL_Driver/Src/stm32g0xx_hal_gpio.c ****       {
 308              		.loc 1 183 7 is_stmt 1 view .LVU120
 183:Drivers/STM32G0xx_HAL_Driver/Src/stm32g0xx_hal_gpio.c ****       {
 309              		.loc 1 183 22 is_stmt 0 view .LVU121
 310 00ce 4E68     		ldr	r6, [r1, #4]
 183:Drivers/STM32G0xx_HAL_Driver/Src/stm32g0xx_hal_gpio.c ****       {
 311              		.loc 1 183 29 view .LVU122
 312 00d0 0324     		movs	r4, #3
 313 00d2 3440     		ands	r4, r6
 183:Drivers/STM32G0xx_HAL_Driver/Src/stm32g0xx_hal_gpio.c ****       {
 314              		.loc 1 183 58 view .LVU123
 315 00d4 013C     		subs	r4, r4, #1
 183:Drivers/STM32G0xx_HAL_Driver/Src/stm32g0xx_hal_gpio.c ****       {
 316              		.loc 1 183 10 view .LVU124
 317 00d6 012C     		cmp	r4, #1
 318 00d8 95D9     		bls	.L22
 319              	.L4:
 201:Drivers/STM32G0xx_HAL_Driver/Src/stm32g0xx_hal_gpio.c ****       {
 320              		.loc 1 201 7 is_stmt 1 view .LVU125
 201:Drivers/STM32G0xx_HAL_Driver/Src/stm32g0xx_hal_gpio.c ****       {
 321              		.loc 1 201 21 is_stmt 0 view .LVU126
 322 00da 4C68     		ldr	r4, [r1, #4]
 201:Drivers/STM32G0xx_HAL_Driver/Src/stm32g0xx_hal_gpio.c ****       {
 323              		.loc 1 201 28 view .LVU127
 324 00dc 0322     		movs	r2, #3
 325 00de 2240     		ands	r2, r4
 201:Drivers/STM32G0xx_HAL_Driver/Src/stm32g0xx_hal_gpio.c ****       {
 326              		.loc 1 201 10 view .LVU128
 327 00e0 032A     		cmp	r2, #3
 328 00e2 08D0     		beq	.L5
 204:Drivers/STM32G0xx_HAL_Driver/Src/stm32g0xx_hal_gpio.c **** 
 329              		.loc 1 204 9 is_stmt 1 view .LVU129
 207:Drivers/STM32G0xx_HAL_Driver/Src/stm32g0xx_hal_gpio.c ****         temp &= ~(GPIO_PUPDR_PUPD0 << (position * 2u));
ARM GAS  /tmp/ccFfnGEb.s 			page 12


 330              		.loc 1 207 9 view .LVU130
 207:Drivers/STM32G0xx_HAL_Driver/Src/stm32g0xx_hal_gpio.c ****         temp &= ~(GPIO_PUPDR_PUPD0 << (position * 2u));
 331              		.loc 1 207 14 is_stmt 0 view .LVU131
 332 00e4 C468     		ldr	r4, [r0, #12]
 333              	.LVL37:
 208:Drivers/STM32G0xx_HAL_Driver/Src/stm32g0xx_hal_gpio.c ****         temp |= ((GPIO_Init->Pull) << (position * 2u));
 334              		.loc 1 208 9 is_stmt 1 view .LVU132
 208:Drivers/STM32G0xx_HAL_Driver/Src/stm32g0xx_hal_gpio.c ****         temp |= ((GPIO_Init->Pull) << (position * 2u));
 335              		.loc 1 208 49 is_stmt 0 view .LVU133
 336 00e6 5E00     		lsls	r6, r3, #1
 208:Drivers/STM32G0xx_HAL_Driver/Src/stm32g0xx_hal_gpio.c ****         temp |= ((GPIO_Init->Pull) << (position * 2u));
 337              		.loc 1 208 36 view .LVU134
 338 00e8 0322     		movs	r2, #3
 339 00ea B240     		lsls	r2, r2, r6
 208:Drivers/STM32G0xx_HAL_Driver/Src/stm32g0xx_hal_gpio.c ****         temp |= ((GPIO_Init->Pull) << (position * 2u));
 340              		.loc 1 208 14 view .LVU135
 341 00ec 9443     		bics	r4, r2
 342              	.LVL38:
 209:Drivers/STM32G0xx_HAL_Driver/Src/stm32g0xx_hal_gpio.c ****         GPIOx->PUPDR = temp;
 343              		.loc 1 209 9 is_stmt 1 view .LVU136
 209:Drivers/STM32G0xx_HAL_Driver/Src/stm32g0xx_hal_gpio.c ****         GPIOx->PUPDR = temp;
 344              		.loc 1 209 28 is_stmt 0 view .LVU137
 345 00ee 8A68     		ldr	r2, [r1, #8]
 209:Drivers/STM32G0xx_HAL_Driver/Src/stm32g0xx_hal_gpio.c ****         GPIOx->PUPDR = temp;
 346              		.loc 1 209 36 view .LVU138
 347 00f0 B240     		lsls	r2, r2, r6
 209:Drivers/STM32G0xx_HAL_Driver/Src/stm32g0xx_hal_gpio.c ****         GPIOx->PUPDR = temp;
 348              		.loc 1 209 14 view .LVU139
 349 00f2 2243     		orrs	r2, r4
 350              	.LVL39:
 210:Drivers/STM32G0xx_HAL_Driver/Src/stm32g0xx_hal_gpio.c ****       }
 351              		.loc 1 210 9 is_stmt 1 view .LVU140
 210:Drivers/STM32G0xx_HAL_Driver/Src/stm32g0xx_hal_gpio.c ****       }
 352              		.loc 1 210 22 is_stmt 0 view .LVU141
 353 00f4 C260     		str	r2, [r0, #12]
 354              	.LVL40:
 355              	.L5:
 214:Drivers/STM32G0xx_HAL_Driver/Src/stm32g0xx_hal_gpio.c ****       {
 356              		.loc 1 214 7 is_stmt 1 view .LVU142
 214:Drivers/STM32G0xx_HAL_Driver/Src/stm32g0xx_hal_gpio.c ****       {
 357              		.loc 1 214 21 is_stmt 0 view .LVU143
 358 00f6 4C68     		ldr	r4, [r1, #4]
 214:Drivers/STM32G0xx_HAL_Driver/Src/stm32g0xx_hal_gpio.c ****       {
 359              		.loc 1 214 28 view .LVU144
 360 00f8 0322     		movs	r2, #3
 361 00fa 2240     		ands	r2, r4
 214:Drivers/STM32G0xx_HAL_Driver/Src/stm32g0xx_hal_gpio.c ****       {
 362              		.loc 1 214 10 view .LVU145
 363 00fc 022A     		cmp	r2, #2
 364 00fe 95D0     		beq	.L23
 365              	.L6:
 228:Drivers/STM32G0xx_HAL_Driver/Src/stm32g0xx_hal_gpio.c ****       temp &= ~(GPIO_MODER_MODE0 << (position * 2u));
 366              		.loc 1 228 7 is_stmt 1 view .LVU146
 228:Drivers/STM32G0xx_HAL_Driver/Src/stm32g0xx_hal_gpio.c ****       temp &= ~(GPIO_MODER_MODE0 << (position * 2u));
 367              		.loc 1 228 12 is_stmt 0 view .LVU147
 368 0100 0468     		ldr	r4, [r0]
 369              	.LVL41:
ARM GAS  /tmp/ccFfnGEb.s 			page 13


 229:Drivers/STM32G0xx_HAL_Driver/Src/stm32g0xx_hal_gpio.c ****       temp |= ((GPIO_Init->Mode & GPIO_MODE) << (position * 2u));
 370              		.loc 1 229 7 is_stmt 1 view .LVU148
 229:Drivers/STM32G0xx_HAL_Driver/Src/stm32g0xx_hal_gpio.c ****       temp |= ((GPIO_Init->Mode & GPIO_MODE) << (position * 2u));
 371              		.loc 1 229 47 is_stmt 0 view .LVU149
 372 0102 5E00     		lsls	r6, r3, #1
 229:Drivers/STM32G0xx_HAL_Driver/Src/stm32g0xx_hal_gpio.c ****       temp |= ((GPIO_Init->Mode & GPIO_MODE) << (position * 2u));
 373              		.loc 1 229 34 view .LVU150
 374 0104 0322     		movs	r2, #3
 375 0106 1700     		movs	r7, r2
 376 0108 B740     		lsls	r7, r7, r6
 229:Drivers/STM32G0xx_HAL_Driver/Src/stm32g0xx_hal_gpio.c ****       temp |= ((GPIO_Init->Mode & GPIO_MODE) << (position * 2u));
 377              		.loc 1 229 12 view .LVU151
 378 010a BC43     		bics	r4, r7
 379              	.LVL42:
 230:Drivers/STM32G0xx_HAL_Driver/Src/stm32g0xx_hal_gpio.c ****       GPIOx->MODER = temp;
 380              		.loc 1 230 7 is_stmt 1 view .LVU152
 230:Drivers/STM32G0xx_HAL_Driver/Src/stm32g0xx_hal_gpio.c ****       GPIOx->MODER = temp;
 381              		.loc 1 230 26 is_stmt 0 view .LVU153
 382 010c 4F68     		ldr	r7, [r1, #4]
 230:Drivers/STM32G0xx_HAL_Driver/Src/stm32g0xx_hal_gpio.c ****       GPIOx->MODER = temp;
 383              		.loc 1 230 33 view .LVU154
 384 010e 3A40     		ands	r2, r7
 230:Drivers/STM32G0xx_HAL_Driver/Src/stm32g0xx_hal_gpio.c ****       GPIOx->MODER = temp;
 385              		.loc 1 230 46 view .LVU155
 386 0110 B240     		lsls	r2, r2, r6
 230:Drivers/STM32G0xx_HAL_Driver/Src/stm32g0xx_hal_gpio.c ****       GPIOx->MODER = temp;
 387              		.loc 1 230 12 view .LVU156
 388 0112 2243     		orrs	r2, r4
 389              	.LVL43:
 231:Drivers/STM32G0xx_HAL_Driver/Src/stm32g0xx_hal_gpio.c **** 
 390              		.loc 1 231 7 is_stmt 1 view .LVU157
 231:Drivers/STM32G0xx_HAL_Driver/Src/stm32g0xx_hal_gpio.c **** 
 391              		.loc 1 231 20 is_stmt 0 view .LVU158
 392 0114 0260     		str	r2, [r0]
 235:Drivers/STM32G0xx_HAL_Driver/Src/stm32g0xx_hal_gpio.c ****       {
 393              		.loc 1 235 7 is_stmt 1 view .LVU159
 235:Drivers/STM32G0xx_HAL_Driver/Src/stm32g0xx_hal_gpio.c ****       {
 394              		.loc 1 235 21 is_stmt 0 view .LVU160
 395 0116 4C68     		ldr	r4, [r1, #4]
 235:Drivers/STM32G0xx_HAL_Driver/Src/stm32g0xx_hal_gpio.c ****       {
 396              		.loc 1 235 28 view .LVU161
 397 0118 C022     		movs	r2, #192
 398              	.LVL44:
 235:Drivers/STM32G0xx_HAL_Driver/Src/stm32g0xx_hal_gpio.c ****       {
 399              		.loc 1 235 28 view .LVU162
 400 011a 9202     		lsls	r2, r2, #10
 235:Drivers/STM32G0xx_HAL_Driver/Src/stm32g0xx_hal_gpio.c ****       {
 401              		.loc 1 235 10 view .LVU163
 402 011c 1442     		tst	r4, r2
 403 011e CBD0     		beq	.L3
 237:Drivers/STM32G0xx_HAL_Driver/Src/stm32g0xx_hal_gpio.c ****         temp &= ~(0x0FuL << (8u * (position & 0x03u)));
 404              		.loc 1 237 9 is_stmt 1 view .LVU164
 237:Drivers/STM32G0xx_HAL_Driver/Src/stm32g0xx_hal_gpio.c ****         temp &= ~(0x0FuL << (8u * (position & 0x03u)));
 405              		.loc 1 237 38 is_stmt 0 view .LVU165
 406 0120 9A08     		lsrs	r2, r3, #2
 237:Drivers/STM32G0xx_HAL_Driver/Src/stm32g0xx_hal_gpio.c ****         temp &= ~(0x0FuL << (8u * (position & 0x03u)));
 407              		.loc 1 237 14 view .LVU166
ARM GAS  /tmp/ccFfnGEb.s 			page 14


 408 0122 1400     		movs	r4, r2
 409 0124 1834     		adds	r4, r4, #24
 410 0126 A400     		lsls	r4, r4, #2
 411 0128 0E4E     		ldr	r6, .L25
 412 012a A759     		ldr	r7, [r4, r6]
 413              	.LVL45:
 238:Drivers/STM32G0xx_HAL_Driver/Src/stm32g0xx_hal_gpio.c ****         temp |= (GPIO_GET_INDEX(GPIOx) << (8u * (position & 0x03u)));
 414              		.loc 1 238 9 is_stmt 1 view .LVU167
 238:Drivers/STM32G0xx_HAL_Driver/Src/stm32g0xx_hal_gpio.c ****         temp |= (GPIO_GET_INDEX(GPIOx) << (8u * (position & 0x03u)));
 415              		.loc 1 238 45 is_stmt 0 view .LVU168
 416 012c 0324     		movs	r4, #3
 417 012e 1C40     		ands	r4, r3
 238:Drivers/STM32G0xx_HAL_Driver/Src/stm32g0xx_hal_gpio.c ****         temp |= (GPIO_GET_INDEX(GPIOx) << (8u * (position & 0x03u)));
 418              		.loc 1 238 33 view .LVU169
 419 0130 E400     		lsls	r4, r4, #3
 238:Drivers/STM32G0xx_HAL_Driver/Src/stm32g0xx_hal_gpio.c ****         temp |= (GPIO_GET_INDEX(GPIOx) << (8u * (position & 0x03u)));
 420              		.loc 1 238 26 view .LVU170
 421 0132 0F26     		movs	r6, #15
 422 0134 A640     		lsls	r6, r6, r4
 238:Drivers/STM32G0xx_HAL_Driver/Src/stm32g0xx_hal_gpio.c ****         temp |= (GPIO_GET_INDEX(GPIOx) << (8u * (position & 0x03u)));
 423              		.loc 1 238 14 view .LVU171
 424 0136 B743     		bics	r7, r6
 425              	.LVL46:
 239:Drivers/STM32G0xx_HAL_Driver/Src/stm32g0xx_hal_gpio.c ****         EXTI->EXTICR[position >> 2u] = temp;
 426              		.loc 1 239 9 is_stmt 1 view .LVU172
 239:Drivers/STM32G0xx_HAL_Driver/Src/stm32g0xx_hal_gpio.c ****         EXTI->EXTICR[position >> 2u] = temp;
 427              		.loc 1 239 18 is_stmt 0 view .LVU173
 428 0138 A026     		movs	r6, #160
 429 013a F605     		lsls	r6, r6, #23
 430 013c B042     		cmp	r0, r6
 431 013e 87D0     		beq	.L13
 239:Drivers/STM32G0xx_HAL_Driver/Src/stm32g0xx_hal_gpio.c ****         EXTI->EXTICR[position >> 2u] = temp;
 432              		.loc 1 239 18 discriminator 1 view .LVU174
 433 0140 094E     		ldr	r6, .L25+4
 434 0142 B042     		cmp	r0, r6
 435 0144 08D0     		beq	.L14
 239:Drivers/STM32G0xx_HAL_Driver/Src/stm32g0xx_hal_gpio.c ****         EXTI->EXTICR[position >> 2u] = temp;
 436              		.loc 1 239 18 discriminator 3 view .LVU175
 437 0146 094E     		ldr	r6, .L25+8
 438 0148 B042     		cmp	r0, r6
 439 014a 07D0     		beq	.L15
 239:Drivers/STM32G0xx_HAL_Driver/Src/stm32g0xx_hal_gpio.c ****         EXTI->EXTICR[position >> 2u] = temp;
 440              		.loc 1 239 18 discriminator 5 view .LVU176
 441 014c 084E     		ldr	r6, .L25+12
 442 014e B042     		cmp	r0, r6
 443 0150 00D1     		bne	.LCB372
 444 0152 7BE7     		b	.L24	@long jump
 445              	.LCB372:
 239:Drivers/STM32G0xx_HAL_Driver/Src/stm32g0xx_hal_gpio.c ****         EXTI->EXTICR[position >> 2u] = temp;
 446              		.loc 1 239 18 discriminator 8 view .LVU177
 447 0154 0526     		movs	r6, #5
 448 0156 7CE7     		b	.L7
 449              	.L14:
 239:Drivers/STM32G0xx_HAL_Driver/Src/stm32g0xx_hal_gpio.c ****         EXTI->EXTICR[position >> 2u] = temp;
 450              		.loc 1 239 18 discriminator 4 view .LVU178
 451 0158 0126     		movs	r6, #1
 452 015a 7AE7     		b	.L7
ARM GAS  /tmp/ccFfnGEb.s 			page 15


 453              	.L15:
 239:Drivers/STM32G0xx_HAL_Driver/Src/stm32g0xx_hal_gpio.c ****         EXTI->EXTICR[position >> 2u] = temp;
 454              		.loc 1 239 18 discriminator 6 view .LVU179
 455 015c 0226     		movs	r6, #2
 456 015e 78E7     		b	.L7
 457              	.LVL47:
 458              	.L21:
 279:Drivers/STM32G0xx_HAL_Driver/Src/stm32g0xx_hal_gpio.c ****   }
 280:Drivers/STM32G0xx_HAL_Driver/Src/stm32g0xx_hal_gpio.c **** }
 459              		.loc 1 280 1 view .LVU180
 460              		@ sp needed
 461 0160 F0BD     		pop	{r4, r5, r6, r7, pc}
 462              	.L26:
 463 0162 C046     		.align	2
 464              	.L25:
 465 0164 00180240 		.word	1073879040
 466 0168 00040050 		.word	1342178304
 467 016c 00080050 		.word	1342179328
 468 0170 000C0050 		.word	1342180352
 469              		.cfi_endproc
 470              	.LFE310:
 472              		.section	.text.HAL_GPIO_DeInit,"ax",%progbits
 473              		.align	1
 474              		.global	HAL_GPIO_DeInit
 475              		.syntax unified
 476              		.code	16
 477              		.thumb_func
 479              	HAL_GPIO_DeInit:
 480              	.LVL48:
 481              	.LFB311:
 281:Drivers/STM32G0xx_HAL_Driver/Src/stm32g0xx_hal_gpio.c **** 
 282:Drivers/STM32G0xx_HAL_Driver/Src/stm32g0xx_hal_gpio.c **** /**
 283:Drivers/STM32G0xx_HAL_Driver/Src/stm32g0xx_hal_gpio.c ****   * @brief  De-initialize the GPIOx peripheral registers to their default reset values.
 284:Drivers/STM32G0xx_HAL_Driver/Src/stm32g0xx_hal_gpio.c ****   * @param  GPIOx where x can be (A..F) to select the GPIO peripheral for STM32G0xx family
 285:Drivers/STM32G0xx_HAL_Driver/Src/stm32g0xx_hal_gpio.c ****   * @param  GPIO_Pin specifies the port bit to be written.
 286:Drivers/STM32G0xx_HAL_Driver/Src/stm32g0xx_hal_gpio.c ****   *         This parameter can be any combination of GPIO_Pin_x where x can be (0..15).
 287:Drivers/STM32G0xx_HAL_Driver/Src/stm32g0xx_hal_gpio.c ****   * @retval None
 288:Drivers/STM32G0xx_HAL_Driver/Src/stm32g0xx_hal_gpio.c ****   */
 289:Drivers/STM32G0xx_HAL_Driver/Src/stm32g0xx_hal_gpio.c **** void HAL_GPIO_DeInit(GPIO_TypeDef  *GPIOx, uint32_t GPIO_Pin)
 290:Drivers/STM32G0xx_HAL_Driver/Src/stm32g0xx_hal_gpio.c **** {
 482              		.loc 1 290 1 is_stmt 1 view -0
 483              		.cfi_startproc
 484              		@ args = 0, pretend = 0, frame = 0
 485              		@ frame_needed = 0, uses_anonymous_args = 0
 486              		.loc 1 290 1 is_stmt 0 view .LVU182
 487 0000 F0B5     		push	{r4, r5, r6, r7, lr}
 488              	.LCFI1:
 489              		.cfi_def_cfa_offset 20
 490              		.cfi_offset 4, -20
 491              		.cfi_offset 5, -16
 492              		.cfi_offset 6, -12
 493              		.cfi_offset 7, -8
 494              		.cfi_offset 14, -4
 495 0002 CE46     		mov	lr, r9
 496 0004 4746     		mov	r7, r8
 497 0006 80B5     		push	{r7, lr}
 498              	.LCFI2:
ARM GAS  /tmp/ccFfnGEb.s 			page 16


 499              		.cfi_def_cfa_offset 28
 500              		.cfi_offset 8, -28
 501              		.cfi_offset 9, -24
 502 0008 8946     		mov	r9, r1
 291:Drivers/STM32G0xx_HAL_Driver/Src/stm32g0xx_hal_gpio.c ****   uint32_t position = 0x00u;
 503              		.loc 1 291 3 is_stmt 1 view .LVU183
 504              	.LVL49:
 292:Drivers/STM32G0xx_HAL_Driver/Src/stm32g0xx_hal_gpio.c ****   uint32_t iocurrent;
 505              		.loc 1 292 3 view .LVU184
 293:Drivers/STM32G0xx_HAL_Driver/Src/stm32g0xx_hal_gpio.c ****   uint32_t tmp;
 506              		.loc 1 293 3 view .LVU185
 294:Drivers/STM32G0xx_HAL_Driver/Src/stm32g0xx_hal_gpio.c **** 
 295:Drivers/STM32G0xx_HAL_Driver/Src/stm32g0xx_hal_gpio.c ****   /* Check the parameters */
 296:Drivers/STM32G0xx_HAL_Driver/Src/stm32g0xx_hal_gpio.c ****   assert_param(IS_GPIO_ALL_INSTANCE(GPIOx));
 507              		.loc 1 296 3 view .LVU186
 297:Drivers/STM32G0xx_HAL_Driver/Src/stm32g0xx_hal_gpio.c ****   assert_param(IS_GPIO_PIN(GPIO_Pin));
 508              		.loc 1 297 3 view .LVU187
 298:Drivers/STM32G0xx_HAL_Driver/Src/stm32g0xx_hal_gpio.c **** 
 299:Drivers/STM32G0xx_HAL_Driver/Src/stm32g0xx_hal_gpio.c ****   /* Configure the port pins */
 300:Drivers/STM32G0xx_HAL_Driver/Src/stm32g0xx_hal_gpio.c ****   while ((GPIO_Pin >> position) != 0x00u)
 509              		.loc 1 300 3 view .LVU188
 291:Drivers/STM32G0xx_HAL_Driver/Src/stm32g0xx_hal_gpio.c ****   uint32_t iocurrent;
 510              		.loc 1 291 12 is_stmt 0 view .LVU189
 511 000a 0023     		movs	r3, #0
 512              		.loc 1 300 9 view .LVU190
 513 000c 23E0     		b	.L28
 514              	.LVL50:
 515              	.L39:
 301:Drivers/STM32G0xx_HAL_Driver/Src/stm32g0xx_hal_gpio.c ****   {
 302:Drivers/STM32G0xx_HAL_Driver/Src/stm32g0xx_hal_gpio.c ****     /* Get current io position */
 303:Drivers/STM32G0xx_HAL_Driver/Src/stm32g0xx_hal_gpio.c ****     iocurrent = (GPIO_Pin) & (1uL << position);
 304:Drivers/STM32G0xx_HAL_Driver/Src/stm32g0xx_hal_gpio.c **** 
 305:Drivers/STM32G0xx_HAL_Driver/Src/stm32g0xx_hal_gpio.c ****     if (iocurrent != 0x00u)
 306:Drivers/STM32G0xx_HAL_Driver/Src/stm32g0xx_hal_gpio.c ****     {
 307:Drivers/STM32G0xx_HAL_Driver/Src/stm32g0xx_hal_gpio.c ****       /*------------------------- EXTI Mode Configuration --------------------*/
 308:Drivers/STM32G0xx_HAL_Driver/Src/stm32g0xx_hal_gpio.c ****       /* Clear the External Interrupt or Event for the current IO */
 309:Drivers/STM32G0xx_HAL_Driver/Src/stm32g0xx_hal_gpio.c **** 
 310:Drivers/STM32G0xx_HAL_Driver/Src/stm32g0xx_hal_gpio.c ****       tmp = EXTI->EXTICR[position >> 2u];
 311:Drivers/STM32G0xx_HAL_Driver/Src/stm32g0xx_hal_gpio.c ****       tmp &= (0x0FuL << (8u * (position & 0x03u)));
 312:Drivers/STM32G0xx_HAL_Driver/Src/stm32g0xx_hal_gpio.c ****       if (tmp == (GPIO_GET_INDEX(GPIOx) << (8u * (position & 0x03u))))
 516              		.loc 1 312 19 discriminator 7 view .LVU191
 517 000e 0321     		movs	r1, #3
 518 0010 8846     		mov	r8, r1
 519 0012 01E0     		b	.L30
 520              	.L33:
 521              		.loc 1 312 19 discriminator 2 view .LVU192
 522 0014 0021     		movs	r1, #0
 523 0016 8846     		mov	r8, r1
 524              	.L30:
 525              		.loc 1 312 41 discriminator 16 view .LVU193
 526 0018 4146     		mov	r1, r8
 527 001a A140     		lsls	r1, r1, r4
 528              		.loc 1 312 10 discriminator 16 view .LVU194
 529 001c A942     		cmp	r1, r5
 530 001e 47D0     		beq	.L37
 531              	.LVL51:
 532              	.L31:
ARM GAS  /tmp/ccFfnGEb.s 			page 17


 313:Drivers/STM32G0xx_HAL_Driver/Src/stm32g0xx_hal_gpio.c ****       {
 314:Drivers/STM32G0xx_HAL_Driver/Src/stm32g0xx_hal_gpio.c ****         /* Clear EXTI line configuration */
 315:Drivers/STM32G0xx_HAL_Driver/Src/stm32g0xx_hal_gpio.c ****         EXTI->IMR1 &= ~(iocurrent);
 316:Drivers/STM32G0xx_HAL_Driver/Src/stm32g0xx_hal_gpio.c ****         EXTI->EMR1 &= ~(iocurrent);
 317:Drivers/STM32G0xx_HAL_Driver/Src/stm32g0xx_hal_gpio.c **** 
 318:Drivers/STM32G0xx_HAL_Driver/Src/stm32g0xx_hal_gpio.c ****         /* Clear Rising Falling edge configuration */
 319:Drivers/STM32G0xx_HAL_Driver/Src/stm32g0xx_hal_gpio.c ****         EXTI->FTSR1 &= ~(iocurrent);
 320:Drivers/STM32G0xx_HAL_Driver/Src/stm32g0xx_hal_gpio.c ****         EXTI->RTSR1 &= ~(iocurrent);
 321:Drivers/STM32G0xx_HAL_Driver/Src/stm32g0xx_hal_gpio.c **** 
 322:Drivers/STM32G0xx_HAL_Driver/Src/stm32g0xx_hal_gpio.c ****         tmp = 0x0FuL << (8u * (position & 0x03u));
 323:Drivers/STM32G0xx_HAL_Driver/Src/stm32g0xx_hal_gpio.c ****         EXTI->EXTICR[position >> 2u] &= ~tmp;
 324:Drivers/STM32G0xx_HAL_Driver/Src/stm32g0xx_hal_gpio.c ****       }
 325:Drivers/STM32G0xx_HAL_Driver/Src/stm32g0xx_hal_gpio.c **** 
 326:Drivers/STM32G0xx_HAL_Driver/Src/stm32g0xx_hal_gpio.c ****       /*------------------------- GPIO Mode Configuration --------------------*/
 327:Drivers/STM32G0xx_HAL_Driver/Src/stm32g0xx_hal_gpio.c ****       /* Configure IO in Analog Mode */
 328:Drivers/STM32G0xx_HAL_Driver/Src/stm32g0xx_hal_gpio.c ****       GPIOx->MODER |= (GPIO_MODER_MODE0 << (position * 2u));
 533              		.loc 1 328 7 is_stmt 1 view .LVU195
 534              		.loc 1 328 12 is_stmt 0 view .LVU196
 535 0020 0468     		ldr	r4, [r0]
 536              		.loc 1 328 54 view .LVU197
 537 0022 5E00     		lsls	r6, r3, #1
 538              		.loc 1 328 41 view .LVU198
 539 0024 0325     		movs	r5, #3
 540 0026 B540     		lsls	r5, r5, r6
 541              		.loc 1 328 20 view .LVU199
 542 0028 2C43     		orrs	r4, r5
 543 002a 0460     		str	r4, [r0]
 329:Drivers/STM32G0xx_HAL_Driver/Src/stm32g0xx_hal_gpio.c **** 
 330:Drivers/STM32G0xx_HAL_Driver/Src/stm32g0xx_hal_gpio.c ****       /* Configure the default Alternate Function in current IO */
 331:Drivers/STM32G0xx_HAL_Driver/Src/stm32g0xx_hal_gpio.c ****       GPIOx->AFR[position >> 3u] &= ~(0xFu << ((position & 0x07u) * 4u)) ;
 544              		.loc 1 331 7 is_stmt 1 view .LVU200
 545              		.loc 1 331 17 is_stmt 0 view .LVU201
 546 002c DC08     		lsrs	r4, r3, #3
 547 002e 0834     		adds	r4, r4, #8
 548 0030 A400     		lsls	r4, r4, #2
 549 0032 2758     		ldr	r7, [r4, r0]
 550              		.loc 1 331 58 view .LVU202
 551 0034 0726     		movs	r6, #7
 552 0036 1E40     		ands	r6, r3
 553              		.loc 1 331 67 view .LVU203
 554 0038 B600     		lsls	r6, r6, #2
 555              		.loc 1 331 44 view .LVU204
 556 003a 0F21     		movs	r1, #15
 557 003c B140     		lsls	r1, r1, r6
 558              		.loc 1 331 34 view .LVU205
 559 003e 8F43     		bics	r7, r1
 560 0040 2750     		str	r7, [r4, r0]
 332:Drivers/STM32G0xx_HAL_Driver/Src/stm32g0xx_hal_gpio.c **** 
 333:Drivers/STM32G0xx_HAL_Driver/Src/stm32g0xx_hal_gpio.c ****       /* Configure the default value for IO Speed */
 334:Drivers/STM32G0xx_HAL_Driver/Src/stm32g0xx_hal_gpio.c ****       GPIOx->OSPEEDR &= ~(GPIO_OSPEEDR_OSPEED0 << (position * 2u));
 561              		.loc 1 334 7 is_stmt 1 view .LVU206
 562              		.loc 1 334 12 is_stmt 0 view .LVU207
 563 0042 8468     		ldr	r4, [r0, #8]
 564              		.loc 1 334 22 view .LVU208
 565 0044 AC43     		bics	r4, r5
 566 0046 8460     		str	r4, [r0, #8]
 335:Drivers/STM32G0xx_HAL_Driver/Src/stm32g0xx_hal_gpio.c **** 
ARM GAS  /tmp/ccFfnGEb.s 			page 18


 336:Drivers/STM32G0xx_HAL_Driver/Src/stm32g0xx_hal_gpio.c ****       /* Configure the default value IO Output Type */
 337:Drivers/STM32G0xx_HAL_Driver/Src/stm32g0xx_hal_gpio.c ****       GPIOx->OTYPER  &= ~(GPIO_OTYPER_OT0 << position) ;
 567              		.loc 1 337 7 is_stmt 1 view .LVU209
 568              		.loc 1 337 12 is_stmt 0 view .LVU210
 569 0048 4468     		ldr	r4, [r0, #4]
 570              		.loc 1 337 22 view .LVU211
 571 004a 9443     		bics	r4, r2
 572 004c 4460     		str	r4, [r0, #4]
 338:Drivers/STM32G0xx_HAL_Driver/Src/stm32g0xx_hal_gpio.c **** 
 339:Drivers/STM32G0xx_HAL_Driver/Src/stm32g0xx_hal_gpio.c ****       /* Deactivate the Pull-up and Pull-down resistor for the current IO */
 340:Drivers/STM32G0xx_HAL_Driver/Src/stm32g0xx_hal_gpio.c ****       GPIOx->PUPDR &= ~(GPIO_PUPDR_PUPD0 << (position * 2u));
 573              		.loc 1 340 7 is_stmt 1 view .LVU212
 574              		.loc 1 340 12 is_stmt 0 view .LVU213
 575 004e C268     		ldr	r2, [r0, #12]
 576              		.loc 1 340 20 view .LVU214
 577 0050 AA43     		bics	r2, r5
 578 0052 C260     		str	r2, [r0, #12]
 579              	.L29:
 341:Drivers/STM32G0xx_HAL_Driver/Src/stm32g0xx_hal_gpio.c ****     }
 342:Drivers/STM32G0xx_HAL_Driver/Src/stm32g0xx_hal_gpio.c **** 
 343:Drivers/STM32G0xx_HAL_Driver/Src/stm32g0xx_hal_gpio.c ****     position++;
 580              		.loc 1 343 5 is_stmt 1 view .LVU215
 581              		.loc 1 343 13 is_stmt 0 view .LVU216
 582 0054 0133     		adds	r3, r3, #1
 583              	.LVL52:
 584              	.L28:
 300:Drivers/STM32G0xx_HAL_Driver/Src/stm32g0xx_hal_gpio.c ****   {
 585              		.loc 1 300 33 is_stmt 1 view .LVU217
 300:Drivers/STM32G0xx_HAL_Driver/Src/stm32g0xx_hal_gpio.c ****   {
 586              		.loc 1 300 20 is_stmt 0 view .LVU218
 587 0056 4A46     		mov	r2, r9
 588 0058 DA40     		lsrs	r2, r2, r3
 300:Drivers/STM32G0xx_HAL_Driver/Src/stm32g0xx_hal_gpio.c ****   {
 589              		.loc 1 300 33 view .LVU219
 590 005a 45D0     		beq	.L38
 303:Drivers/STM32G0xx_HAL_Driver/Src/stm32g0xx_hal_gpio.c **** 
 591              		.loc 1 303 5 is_stmt 1 view .LVU220
 303:Drivers/STM32G0xx_HAL_Driver/Src/stm32g0xx_hal_gpio.c **** 
 592              		.loc 1 303 35 is_stmt 0 view .LVU221
 593 005c 0122     		movs	r2, #1
 594 005e 9A40     		lsls	r2, r2, r3
 303:Drivers/STM32G0xx_HAL_Driver/Src/stm32g0xx_hal_gpio.c **** 
 595              		.loc 1 303 15 view .LVU222
 596 0060 4C46     		mov	r4, r9
 597 0062 1440     		ands	r4, r2
 598 0064 A446     		mov	ip, r4
 599              	.LVL53:
 305:Drivers/STM32G0xx_HAL_Driver/Src/stm32g0xx_hal_gpio.c ****     {
 600              		.loc 1 305 5 is_stmt 1 view .LVU223
 305:Drivers/STM32G0xx_HAL_Driver/Src/stm32g0xx_hal_gpio.c ****     {
 601              		.loc 1 305 8 is_stmt 0 view .LVU224
 602 0066 4946     		mov	r1, r9
 603 0068 1142     		tst	r1, r2
 604 006a F3D0     		beq	.L29
 605              	.LVL54:
 310:Drivers/STM32G0xx_HAL_Driver/Src/stm32g0xx_hal_gpio.c ****       tmp &= (0x0FuL << (8u * (position & 0x03u)));
 606              		.loc 1 310 7 is_stmt 1 view .LVU225
ARM GAS  /tmp/ccFfnGEb.s 			page 19


 310:Drivers/STM32G0xx_HAL_Driver/Src/stm32g0xx_hal_gpio.c ****       tmp &= (0x0FuL << (8u * (position & 0x03u)));
 607              		.loc 1 310 35 is_stmt 0 view .LVU226
 608 006c 9F08     		lsrs	r7, r3, #2
 310:Drivers/STM32G0xx_HAL_Driver/Src/stm32g0xx_hal_gpio.c ****       tmp &= (0x0FuL << (8u * (position & 0x03u)));
 609              		.loc 1 310 11 view .LVU227
 610 006e 3C00     		movs	r4, r7
 611              	.LVL55:
 310:Drivers/STM32G0xx_HAL_Driver/Src/stm32g0xx_hal_gpio.c ****       tmp &= (0x0FuL << (8u * (position & 0x03u)));
 612              		.loc 1 310 11 view .LVU228
 613 0070 1834     		adds	r4, r4, #24
 614 0072 A400     		lsls	r4, r4, #2
 615 0074 1E4D     		ldr	r5, .L40
 616 0076 6559     		ldr	r5, [r4, r5]
 617              	.LVL56:
 311:Drivers/STM32G0xx_HAL_Driver/Src/stm32g0xx_hal_gpio.c ****       if (tmp == (GPIO_GET_INDEX(GPIOx) << (8u * (position & 0x03u))))
 618              		.loc 1 311 7 is_stmt 1 view .LVU229
 311:Drivers/STM32G0xx_HAL_Driver/Src/stm32g0xx_hal_gpio.c ****       if (tmp == (GPIO_GET_INDEX(GPIOx) << (8u * (position & 0x03u))))
 619              		.loc 1 311 41 is_stmt 0 view .LVU230
 620 0078 0326     		movs	r6, #3
 621 007a 1E40     		ands	r6, r3
 311:Drivers/STM32G0xx_HAL_Driver/Src/stm32g0xx_hal_gpio.c ****       if (tmp == (GPIO_GET_INDEX(GPIOx) << (8u * (position & 0x03u))))
 622              		.loc 1 311 29 view .LVU231
 623 007c F400     		lsls	r4, r6, #3
 311:Drivers/STM32G0xx_HAL_Driver/Src/stm32g0xx_hal_gpio.c ****       if (tmp == (GPIO_GET_INDEX(GPIOx) << (8u * (position & 0x03u))))
 624              		.loc 1 311 22 view .LVU232
 625 007e 0F26     		movs	r6, #15
 626 0080 A640     		lsls	r6, r6, r4
 311:Drivers/STM32G0xx_HAL_Driver/Src/stm32g0xx_hal_gpio.c ****       if (tmp == (GPIO_GET_INDEX(GPIOx) << (8u * (position & 0x03u))))
 627              		.loc 1 311 11 view .LVU233
 628 0082 3540     		ands	r5, r6
 629              	.LVL57:
 312:Drivers/STM32G0xx_HAL_Driver/Src/stm32g0xx_hal_gpio.c ****       {
 630              		.loc 1 312 7 is_stmt 1 view .LVU234
 312:Drivers/STM32G0xx_HAL_Driver/Src/stm32g0xx_hal_gpio.c ****       {
 631              		.loc 1 312 19 is_stmt 0 view .LVU235
 632 0084 A021     		movs	r1, #160
 633              	.LVL58:
 312:Drivers/STM32G0xx_HAL_Driver/Src/stm32g0xx_hal_gpio.c ****       {
 634              		.loc 1 312 19 view .LVU236
 635 0086 C905     		lsls	r1, r1, #23
 636 0088 8842     		cmp	r0, r1
 637 008a C3D0     		beq	.L33
 312:Drivers/STM32G0xx_HAL_Driver/Src/stm32g0xx_hal_gpio.c ****       {
 638              		.loc 1 312 19 discriminator 1 view .LVU237
 639 008c 1949     		ldr	r1, .L40+4
 640 008e 8842     		cmp	r0, r1
 641 0090 08D0     		beq	.L34
 312:Drivers/STM32G0xx_HAL_Driver/Src/stm32g0xx_hal_gpio.c ****       {
 642              		.loc 1 312 19 discriminator 3 view .LVU238
 643 0092 1949     		ldr	r1, .L40+8
 644 0094 8842     		cmp	r0, r1
 645 0096 08D0     		beq	.L35
 312:Drivers/STM32G0xx_HAL_Driver/Src/stm32g0xx_hal_gpio.c ****       {
 646              		.loc 1 312 19 discriminator 5 view .LVU239
 647 0098 1849     		ldr	r1, .L40+12
 648 009a 8842     		cmp	r0, r1
 649 009c B7D0     		beq	.L39
ARM GAS  /tmp/ccFfnGEb.s 			page 20


 312:Drivers/STM32G0xx_HAL_Driver/Src/stm32g0xx_hal_gpio.c ****       {
 650              		.loc 1 312 19 discriminator 8 view .LVU240
 651 009e 0521     		movs	r1, #5
 652 00a0 8846     		mov	r8, r1
 653 00a2 B9E7     		b	.L30
 654              	.L34:
 312:Drivers/STM32G0xx_HAL_Driver/Src/stm32g0xx_hal_gpio.c ****       {
 655              		.loc 1 312 19 discriminator 4 view .LVU241
 656 00a4 0121     		movs	r1, #1
 657 00a6 8846     		mov	r8, r1
 658 00a8 B6E7     		b	.L30
 659              	.L35:
 312:Drivers/STM32G0xx_HAL_Driver/Src/stm32g0xx_hal_gpio.c ****       {
 660              		.loc 1 312 19 discriminator 6 view .LVU242
 661 00aa 0221     		movs	r1, #2
 662 00ac 8846     		mov	r8, r1
 663 00ae B3E7     		b	.L30
 664              	.L37:
 315:Drivers/STM32G0xx_HAL_Driver/Src/stm32g0xx_hal_gpio.c ****         EXTI->EMR1 &= ~(iocurrent);
 665              		.loc 1 315 9 is_stmt 1 view .LVU243
 315:Drivers/STM32G0xx_HAL_Driver/Src/stm32g0xx_hal_gpio.c ****         EXTI->EMR1 &= ~(iocurrent);
 666              		.loc 1 315 13 is_stmt 0 view .LVU244
 667 00b0 0F4D     		ldr	r5, .L40
 668              	.LVL59:
 315:Drivers/STM32G0xx_HAL_Driver/Src/stm32g0xx_hal_gpio.c ****         EXTI->EMR1 &= ~(iocurrent);
 669              		.loc 1 315 13 view .LVU245
 670 00b2 8021     		movs	r1, #128
 671 00b4 8846     		mov	r8, r1
 672 00b6 6C58     		ldr	r4, [r5, r1]
 315:Drivers/STM32G0xx_HAL_Driver/Src/stm32g0xx_hal_gpio.c ****         EXTI->EMR1 &= ~(iocurrent);
 673              		.loc 1 315 20 view .LVU246
 674 00b8 6146     		mov	r1, ip
 675 00ba 8C43     		bics	r4, r1
 676 00bc 4146     		mov	r1, r8
 677 00be 6C50     		str	r4, [r5, r1]
 316:Drivers/STM32G0xx_HAL_Driver/Src/stm32g0xx_hal_gpio.c **** 
 678              		.loc 1 316 9 is_stmt 1 view .LVU247
 316:Drivers/STM32G0xx_HAL_Driver/Src/stm32g0xx_hal_gpio.c **** 
 679              		.loc 1 316 13 is_stmt 0 view .LVU248
 680 00c0 0431     		adds	r1, r1, #4
 681 00c2 8846     		mov	r8, r1
 682 00c4 6C58     		ldr	r4, [r5, r1]
 316:Drivers/STM32G0xx_HAL_Driver/Src/stm32g0xx_hal_gpio.c **** 
 683              		.loc 1 316 20 view .LVU249
 684 00c6 6146     		mov	r1, ip
 685 00c8 8C43     		bics	r4, r1
 686 00ca 4146     		mov	r1, r8
 687 00cc 6C50     		str	r4, [r5, r1]
 319:Drivers/STM32G0xx_HAL_Driver/Src/stm32g0xx_hal_gpio.c ****         EXTI->RTSR1 &= ~(iocurrent);
 688              		.loc 1 319 9 is_stmt 1 view .LVU250
 319:Drivers/STM32G0xx_HAL_Driver/Src/stm32g0xx_hal_gpio.c ****         EXTI->RTSR1 &= ~(iocurrent);
 689              		.loc 1 319 13 is_stmt 0 view .LVU251
 690 00ce 6C68     		ldr	r4, [r5, #4]
 319:Drivers/STM32G0xx_HAL_Driver/Src/stm32g0xx_hal_gpio.c ****         EXTI->RTSR1 &= ~(iocurrent);
 691              		.loc 1 319 21 view .LVU252
 692 00d0 6146     		mov	r1, ip
 693 00d2 8C43     		bics	r4, r1
ARM GAS  /tmp/ccFfnGEb.s 			page 21


 694 00d4 6C60     		str	r4, [r5, #4]
 320:Drivers/STM32G0xx_HAL_Driver/Src/stm32g0xx_hal_gpio.c **** 
 695              		.loc 1 320 9 is_stmt 1 view .LVU253
 320:Drivers/STM32G0xx_HAL_Driver/Src/stm32g0xx_hal_gpio.c **** 
 696              		.loc 1 320 13 is_stmt 0 view .LVU254
 697 00d6 2C68     		ldr	r4, [r5]
 320:Drivers/STM32G0xx_HAL_Driver/Src/stm32g0xx_hal_gpio.c **** 
 698              		.loc 1 320 21 view .LVU255
 699 00d8 8C43     		bics	r4, r1
 700 00da 2C60     		str	r4, [r5]
 322:Drivers/STM32G0xx_HAL_Driver/Src/stm32g0xx_hal_gpio.c ****         EXTI->EXTICR[position >> 2u] &= ~tmp;
 701              		.loc 1 322 9 is_stmt 1 view .LVU256
 702              	.LVL60:
 323:Drivers/STM32G0xx_HAL_Driver/Src/stm32g0xx_hal_gpio.c ****       }
 703              		.loc 1 323 9 view .LVU257
 323:Drivers/STM32G0xx_HAL_Driver/Src/stm32g0xx_hal_gpio.c ****       }
 704              		.loc 1 323 21 is_stmt 0 view .LVU258
 705 00dc 1837     		adds	r7, r7, #24
 706 00de BC00     		lsls	r4, r7, #2
 707 00e0 6759     		ldr	r7, [r4, r5]
 323:Drivers/STM32G0xx_HAL_Driver/Src/stm32g0xx_hal_gpio.c ****       }
 708              		.loc 1 323 38 view .LVU259
 709 00e2 B743     		bics	r7, r6
 710 00e4 6751     		str	r7, [r4, r5]
 711 00e6 9BE7     		b	.L31
 712              	.LVL61:
 713              	.L38:
 344:Drivers/STM32G0xx_HAL_Driver/Src/stm32g0xx_hal_gpio.c ****   }
 345:Drivers/STM32G0xx_HAL_Driver/Src/stm32g0xx_hal_gpio.c **** }
 714              		.loc 1 345 1 view .LVU260
 715              		@ sp needed
 716              	.LVL62:
 717              		.loc 1 345 1 view .LVU261
 718 00e8 C0BC     		pop	{r6, r7}
 719 00ea B946     		mov	r9, r7
 720 00ec B046     		mov	r8, r6
 721 00ee F0BD     		pop	{r4, r5, r6, r7, pc}
 722              	.L41:
 723              		.align	2
 724              	.L40:
 725 00f0 00180240 		.word	1073879040
 726 00f4 00040050 		.word	1342178304
 727 00f8 00080050 		.word	1342179328
 728 00fc 000C0050 		.word	1342180352
 729              		.cfi_endproc
 730              	.LFE311:
 732              		.section	.text.HAL_GPIO_ReadPin,"ax",%progbits
 733              		.align	1
 734              		.global	HAL_GPIO_ReadPin
 735              		.syntax unified
 736              		.code	16
 737              		.thumb_func
 739              	HAL_GPIO_ReadPin:
 740              	.LVL63:
 741              	.LFB312:
 346:Drivers/STM32G0xx_HAL_Driver/Src/stm32g0xx_hal_gpio.c **** 
 347:Drivers/STM32G0xx_HAL_Driver/Src/stm32g0xx_hal_gpio.c **** /**
ARM GAS  /tmp/ccFfnGEb.s 			page 22


 348:Drivers/STM32G0xx_HAL_Driver/Src/stm32g0xx_hal_gpio.c ****   * @}
 349:Drivers/STM32G0xx_HAL_Driver/Src/stm32g0xx_hal_gpio.c ****   */
 350:Drivers/STM32G0xx_HAL_Driver/Src/stm32g0xx_hal_gpio.c **** 
 351:Drivers/STM32G0xx_HAL_Driver/Src/stm32g0xx_hal_gpio.c **** /** @addtogroup GPIO_Exported_Functions_Group2
 352:Drivers/STM32G0xx_HAL_Driver/Src/stm32g0xx_hal_gpio.c ****  *  @brief GPIO Read, Write, Toggle, Lock and EXTI management functions.
 353:Drivers/STM32G0xx_HAL_Driver/Src/stm32g0xx_hal_gpio.c ****  *
 354:Drivers/STM32G0xx_HAL_Driver/Src/stm32g0xx_hal_gpio.c **** @verbatim
 355:Drivers/STM32G0xx_HAL_Driver/Src/stm32g0xx_hal_gpio.c ****  ===============================================================================
 356:Drivers/STM32G0xx_HAL_Driver/Src/stm32g0xx_hal_gpio.c ****                        ##### IO operation functions #####
 357:Drivers/STM32G0xx_HAL_Driver/Src/stm32g0xx_hal_gpio.c ****  ===============================================================================
 358:Drivers/STM32G0xx_HAL_Driver/Src/stm32g0xx_hal_gpio.c **** 
 359:Drivers/STM32G0xx_HAL_Driver/Src/stm32g0xx_hal_gpio.c **** @endverbatim
 360:Drivers/STM32G0xx_HAL_Driver/Src/stm32g0xx_hal_gpio.c ****   * @{
 361:Drivers/STM32G0xx_HAL_Driver/Src/stm32g0xx_hal_gpio.c ****   */
 362:Drivers/STM32G0xx_HAL_Driver/Src/stm32g0xx_hal_gpio.c **** 
 363:Drivers/STM32G0xx_HAL_Driver/Src/stm32g0xx_hal_gpio.c **** /**
 364:Drivers/STM32G0xx_HAL_Driver/Src/stm32g0xx_hal_gpio.c ****   * @brief  Read the specified input port pin.
 365:Drivers/STM32G0xx_HAL_Driver/Src/stm32g0xx_hal_gpio.c ****   * @param  GPIOx where x can be (A..F) to select the GPIO peripheral for STM32G0xx family
 366:Drivers/STM32G0xx_HAL_Driver/Src/stm32g0xx_hal_gpio.c ****   * @param  GPIO_Pin specifies the port bit to read.
 367:Drivers/STM32G0xx_HAL_Driver/Src/stm32g0xx_hal_gpio.c ****   *         This parameter can be any combination of GPIO_Pin_x where x can be (0..15).
 368:Drivers/STM32G0xx_HAL_Driver/Src/stm32g0xx_hal_gpio.c ****   * @retval The input port pin value.
 369:Drivers/STM32G0xx_HAL_Driver/Src/stm32g0xx_hal_gpio.c ****   */
 370:Drivers/STM32G0xx_HAL_Driver/Src/stm32g0xx_hal_gpio.c **** GPIO_PinState HAL_GPIO_ReadPin(GPIO_TypeDef *GPIOx, uint16_t GPIO_Pin)
 371:Drivers/STM32G0xx_HAL_Driver/Src/stm32g0xx_hal_gpio.c **** {
 742              		.loc 1 371 1 is_stmt 1 view -0
 743              		.cfi_startproc
 744              		@ args = 0, pretend = 0, frame = 0
 745              		@ frame_needed = 0, uses_anonymous_args = 0
 746              		@ link register save eliminated.
 372:Drivers/STM32G0xx_HAL_Driver/Src/stm32g0xx_hal_gpio.c ****   GPIO_PinState bitstatus;
 747              		.loc 1 372 3 view .LVU263
 373:Drivers/STM32G0xx_HAL_Driver/Src/stm32g0xx_hal_gpio.c **** 
 374:Drivers/STM32G0xx_HAL_Driver/Src/stm32g0xx_hal_gpio.c ****   /* Check the parameters */
 375:Drivers/STM32G0xx_HAL_Driver/Src/stm32g0xx_hal_gpio.c ****   assert_param(IS_GPIO_PIN(GPIO_Pin));
 748              		.loc 1 375 3 view .LVU264
 376:Drivers/STM32G0xx_HAL_Driver/Src/stm32g0xx_hal_gpio.c **** 
 377:Drivers/STM32G0xx_HAL_Driver/Src/stm32g0xx_hal_gpio.c ****   if ((GPIOx->IDR & GPIO_Pin) != 0x00u)
 749              		.loc 1 377 3 view .LVU265
 750              		.loc 1 377 13 is_stmt 0 view .LVU266
 751 0000 0369     		ldr	r3, [r0, #16]
 752              		.loc 1 377 6 view .LVU267
 753 0002 0B42     		tst	r3, r1
 754 0004 01D0     		beq	.L44
 378:Drivers/STM32G0xx_HAL_Driver/Src/stm32g0xx_hal_gpio.c ****   {
 379:Drivers/STM32G0xx_HAL_Driver/Src/stm32g0xx_hal_gpio.c ****     bitstatus = GPIO_PIN_SET;
 755              		.loc 1 379 15 view .LVU268
 756 0006 0120     		movs	r0, #1
 757              	.LVL64:
 758              	.L43:
 380:Drivers/STM32G0xx_HAL_Driver/Src/stm32g0xx_hal_gpio.c ****   }
 381:Drivers/STM32G0xx_HAL_Driver/Src/stm32g0xx_hal_gpio.c ****   else
 382:Drivers/STM32G0xx_HAL_Driver/Src/stm32g0xx_hal_gpio.c ****   {
 383:Drivers/STM32G0xx_HAL_Driver/Src/stm32g0xx_hal_gpio.c ****     bitstatus = GPIO_PIN_RESET;
 384:Drivers/STM32G0xx_HAL_Driver/Src/stm32g0xx_hal_gpio.c ****   }
 385:Drivers/STM32G0xx_HAL_Driver/Src/stm32g0xx_hal_gpio.c ****   return bitstatus;
 759              		.loc 1 385 3 is_stmt 1 view .LVU269
 386:Drivers/STM32G0xx_HAL_Driver/Src/stm32g0xx_hal_gpio.c **** }
ARM GAS  /tmp/ccFfnGEb.s 			page 23


 760              		.loc 1 386 1 is_stmt 0 view .LVU270
 761              		@ sp needed
 762 0008 7047     		bx	lr
 763              	.LVL65:
 764              	.L44:
 383:Drivers/STM32G0xx_HAL_Driver/Src/stm32g0xx_hal_gpio.c ****   }
 765              		.loc 1 383 15 view .LVU271
 766 000a 0020     		movs	r0, #0
 767              	.LVL66:
 383:Drivers/STM32G0xx_HAL_Driver/Src/stm32g0xx_hal_gpio.c ****   }
 768              		.loc 1 383 15 view .LVU272
 769 000c FCE7     		b	.L43
 770              		.cfi_endproc
 771              	.LFE312:
 773              		.section	.text.HAL_GPIO_WritePin,"ax",%progbits
 774              		.align	1
 775              		.global	HAL_GPIO_WritePin
 776              		.syntax unified
 777              		.code	16
 778              		.thumb_func
 780              	HAL_GPIO_WritePin:
 781              	.LVL67:
 782              	.LFB313:
 387:Drivers/STM32G0xx_HAL_Driver/Src/stm32g0xx_hal_gpio.c **** 
 388:Drivers/STM32G0xx_HAL_Driver/Src/stm32g0xx_hal_gpio.c **** /**
 389:Drivers/STM32G0xx_HAL_Driver/Src/stm32g0xx_hal_gpio.c ****   * @brief  Set or clear the selected data port bit.
 390:Drivers/STM32G0xx_HAL_Driver/Src/stm32g0xx_hal_gpio.c ****   *
 391:Drivers/STM32G0xx_HAL_Driver/Src/stm32g0xx_hal_gpio.c ****   * @note   This function uses GPIOx_BSRR and GPIOx_BRR registers to allow atomic read/modify
 392:Drivers/STM32G0xx_HAL_Driver/Src/stm32g0xx_hal_gpio.c ****   *         accesses. In this way, there is no risk of an IRQ occurring between
 393:Drivers/STM32G0xx_HAL_Driver/Src/stm32g0xx_hal_gpio.c ****   *         the read and the modify access.
 394:Drivers/STM32G0xx_HAL_Driver/Src/stm32g0xx_hal_gpio.c ****   *
 395:Drivers/STM32G0xx_HAL_Driver/Src/stm32g0xx_hal_gpio.c ****   * @param  GPIOx where x can be (A..F) to select the GPIO peripheral for STM32G0xx family
 396:Drivers/STM32G0xx_HAL_Driver/Src/stm32g0xx_hal_gpio.c ****   * @param  GPIO_Pin specifies the port bit to be written.
 397:Drivers/STM32G0xx_HAL_Driver/Src/stm32g0xx_hal_gpio.c ****   *         This parameter can be any combination of GPIO_Pin_x where x can be (0..15).
 398:Drivers/STM32G0xx_HAL_Driver/Src/stm32g0xx_hal_gpio.c ****   * @param  PinState specifies the value to be written to the selected bit.
 399:Drivers/STM32G0xx_HAL_Driver/Src/stm32g0xx_hal_gpio.c ****   *         This parameter can be one of the GPIO_PinState enum values:
 400:Drivers/STM32G0xx_HAL_Driver/Src/stm32g0xx_hal_gpio.c ****   *            @arg GPIO_PIN_RESET: to clear the port pin
 401:Drivers/STM32G0xx_HAL_Driver/Src/stm32g0xx_hal_gpio.c ****   *            @arg GPIO_PIN_SET: to set the port pin
 402:Drivers/STM32G0xx_HAL_Driver/Src/stm32g0xx_hal_gpio.c ****   * @retval None
 403:Drivers/STM32G0xx_HAL_Driver/Src/stm32g0xx_hal_gpio.c ****   */
 404:Drivers/STM32G0xx_HAL_Driver/Src/stm32g0xx_hal_gpio.c **** void HAL_GPIO_WritePin(GPIO_TypeDef *GPIOx, uint16_t GPIO_Pin, GPIO_PinState PinState)
 405:Drivers/STM32G0xx_HAL_Driver/Src/stm32g0xx_hal_gpio.c **** {
 783              		.loc 1 405 1 is_stmt 1 view -0
 784              		.cfi_startproc
 785              		@ args = 0, pretend = 0, frame = 0
 786              		@ frame_needed = 0, uses_anonymous_args = 0
 787              		@ link register save eliminated.
 406:Drivers/STM32G0xx_HAL_Driver/Src/stm32g0xx_hal_gpio.c ****   /* Check the parameters */
 407:Drivers/STM32G0xx_HAL_Driver/Src/stm32g0xx_hal_gpio.c ****   assert_param(IS_GPIO_PIN(GPIO_Pin));
 788              		.loc 1 407 3 view .LVU274
 408:Drivers/STM32G0xx_HAL_Driver/Src/stm32g0xx_hal_gpio.c ****   assert_param(IS_GPIO_PIN_ACTION(PinState));
 789              		.loc 1 408 3 view .LVU275
 409:Drivers/STM32G0xx_HAL_Driver/Src/stm32g0xx_hal_gpio.c **** 
 410:Drivers/STM32G0xx_HAL_Driver/Src/stm32g0xx_hal_gpio.c ****   if (PinState != GPIO_PIN_RESET)
 790              		.loc 1 410 3 view .LVU276
 791              		.loc 1 410 6 is_stmt 0 view .LVU277
 792 0000 002A     		cmp	r2, #0
ARM GAS  /tmp/ccFfnGEb.s 			page 24


 793 0002 01D0     		beq	.L46
 411:Drivers/STM32G0xx_HAL_Driver/Src/stm32g0xx_hal_gpio.c ****   {
 412:Drivers/STM32G0xx_HAL_Driver/Src/stm32g0xx_hal_gpio.c ****     GPIOx->BSRR = (uint32_t)GPIO_Pin;
 794              		.loc 1 412 5 is_stmt 1 view .LVU278
 795              		.loc 1 412 17 is_stmt 0 view .LVU279
 796 0004 8161     		str	r1, [r0, #24]
 797              	.L45:
 413:Drivers/STM32G0xx_HAL_Driver/Src/stm32g0xx_hal_gpio.c ****   }
 414:Drivers/STM32G0xx_HAL_Driver/Src/stm32g0xx_hal_gpio.c ****   else
 415:Drivers/STM32G0xx_HAL_Driver/Src/stm32g0xx_hal_gpio.c ****   {
 416:Drivers/STM32G0xx_HAL_Driver/Src/stm32g0xx_hal_gpio.c ****     GPIOx->BRR = (uint32_t)GPIO_Pin;
 417:Drivers/STM32G0xx_HAL_Driver/Src/stm32g0xx_hal_gpio.c ****   }
 418:Drivers/STM32G0xx_HAL_Driver/Src/stm32g0xx_hal_gpio.c **** }
 798              		.loc 1 418 1 view .LVU280
 799              		@ sp needed
 800 0006 7047     		bx	lr
 801              	.L46:
 416:Drivers/STM32G0xx_HAL_Driver/Src/stm32g0xx_hal_gpio.c ****   }
 802              		.loc 1 416 5 is_stmt 1 view .LVU281
 416:Drivers/STM32G0xx_HAL_Driver/Src/stm32g0xx_hal_gpio.c ****   }
 803              		.loc 1 416 16 is_stmt 0 view .LVU282
 804 0008 8162     		str	r1, [r0, #40]
 805              		.loc 1 418 1 view .LVU283
 806 000a FCE7     		b	.L45
 807              		.cfi_endproc
 808              	.LFE313:
 810              		.section	.text.HAL_GPIO_TogglePin,"ax",%progbits
 811              		.align	1
 812              		.global	HAL_GPIO_TogglePin
 813              		.syntax unified
 814              		.code	16
 815              		.thumb_func
 817              	HAL_GPIO_TogglePin:
 818              	.LVL68:
 819              	.LFB314:
 419:Drivers/STM32G0xx_HAL_Driver/Src/stm32g0xx_hal_gpio.c **** 
 420:Drivers/STM32G0xx_HAL_Driver/Src/stm32g0xx_hal_gpio.c **** /**
 421:Drivers/STM32G0xx_HAL_Driver/Src/stm32g0xx_hal_gpio.c ****   * @brief  Toggle the specified GPIO pin.
 422:Drivers/STM32G0xx_HAL_Driver/Src/stm32g0xx_hal_gpio.c ****   * @param  GPIOx where x can be (A..F) to select the GPIO peripheral for STM32G0xx family
 423:Drivers/STM32G0xx_HAL_Driver/Src/stm32g0xx_hal_gpio.c ****   * @param  GPIO_Pin specifies the pin to be toggled.
 424:Drivers/STM32G0xx_HAL_Driver/Src/stm32g0xx_hal_gpio.c ****   *         This parameter can be any combination of GPIO_Pin_x where x can be (0..15).
 425:Drivers/STM32G0xx_HAL_Driver/Src/stm32g0xx_hal_gpio.c ****   * @retval None
 426:Drivers/STM32G0xx_HAL_Driver/Src/stm32g0xx_hal_gpio.c ****   */
 427:Drivers/STM32G0xx_HAL_Driver/Src/stm32g0xx_hal_gpio.c **** void HAL_GPIO_TogglePin(GPIO_TypeDef *GPIOx, uint16_t GPIO_Pin)
 428:Drivers/STM32G0xx_HAL_Driver/Src/stm32g0xx_hal_gpio.c **** {
 820              		.loc 1 428 1 is_stmt 1 view -0
 821              		.cfi_startproc
 822              		@ args = 0, pretend = 0, frame = 0
 823              		@ frame_needed = 0, uses_anonymous_args = 0
 824              		@ link register save eliminated.
 429:Drivers/STM32G0xx_HAL_Driver/Src/stm32g0xx_hal_gpio.c ****   uint32_t odr;
 825              		.loc 1 429 3 view .LVU285
 430:Drivers/STM32G0xx_HAL_Driver/Src/stm32g0xx_hal_gpio.c **** 
 431:Drivers/STM32G0xx_HAL_Driver/Src/stm32g0xx_hal_gpio.c ****   /* Check the parameters */
 432:Drivers/STM32G0xx_HAL_Driver/Src/stm32g0xx_hal_gpio.c ****   assert_param(IS_GPIO_PIN(GPIO_Pin));
 826              		.loc 1 432 3 view .LVU286
 433:Drivers/STM32G0xx_HAL_Driver/Src/stm32g0xx_hal_gpio.c **** 
ARM GAS  /tmp/ccFfnGEb.s 			page 25


 434:Drivers/STM32G0xx_HAL_Driver/Src/stm32g0xx_hal_gpio.c ****   /* get current Output Data Register value */
 435:Drivers/STM32G0xx_HAL_Driver/Src/stm32g0xx_hal_gpio.c ****   odr = GPIOx->ODR;
 827              		.loc 1 435 3 view .LVU287
 828              		.loc 1 435 7 is_stmt 0 view .LVU288
 829 0000 4269     		ldr	r2, [r0, #20]
 830              	.LVL69:
 436:Drivers/STM32G0xx_HAL_Driver/Src/stm32g0xx_hal_gpio.c **** 
 437:Drivers/STM32G0xx_HAL_Driver/Src/stm32g0xx_hal_gpio.c ****   /* Set selected pins that were at low level, and reset ones that were high */
 438:Drivers/STM32G0xx_HAL_Driver/Src/stm32g0xx_hal_gpio.c ****   GPIOx->BSRR = ((odr & GPIO_Pin) << GPIO_NUMBER) | (~odr & GPIO_Pin);
 831              		.loc 1 438 3 is_stmt 1 view .LVU289
 832              		.loc 1 438 23 is_stmt 0 view .LVU290
 833 0002 1300     		movs	r3, r2
 834 0004 0B40     		ands	r3, r1
 835              		.loc 1 438 35 view .LVU291
 836 0006 1B04     		lsls	r3, r3, #16
 837              		.loc 1 438 59 view .LVU292
 838 0008 9143     		bics	r1, r2
 839              	.LVL70:
 840              		.loc 1 438 51 view .LVU293
 841 000a 0B43     		orrs	r3, r1
 842              		.loc 1 438 15 view .LVU294
 843 000c 8361     		str	r3, [r0, #24]
 439:Drivers/STM32G0xx_HAL_Driver/Src/stm32g0xx_hal_gpio.c **** }
 844              		.loc 1 439 1 view .LVU295
 845              		@ sp needed
 846 000e 7047     		bx	lr
 847              		.cfi_endproc
 848              	.LFE314:
 850              		.section	.text.HAL_GPIO_LockPin,"ax",%progbits
 851              		.align	1
 852              		.global	HAL_GPIO_LockPin
 853              		.syntax unified
 854              		.code	16
 855              		.thumb_func
 857              	HAL_GPIO_LockPin:
 858              	.LVL71:
 859              	.LFB315:
 440:Drivers/STM32G0xx_HAL_Driver/Src/stm32g0xx_hal_gpio.c **** 
 441:Drivers/STM32G0xx_HAL_Driver/Src/stm32g0xx_hal_gpio.c **** /**
 442:Drivers/STM32G0xx_HAL_Driver/Src/stm32g0xx_hal_gpio.c **** * @brief  Lock GPIO Pins configuration registers.
 443:Drivers/STM32G0xx_HAL_Driver/Src/stm32g0xx_hal_gpio.c ****   * @note   The locked registers are GPIOx_MODER, GPIOx_OTYPER, GPIOx_OSPEEDR,
 444:Drivers/STM32G0xx_HAL_Driver/Src/stm32g0xx_hal_gpio.c ****   *         GPIOx_PUPDR, GPIOx_AFRL and GPIOx_AFRH.
 445:Drivers/STM32G0xx_HAL_Driver/Src/stm32g0xx_hal_gpio.c ****   * @note   The configuration of the locked GPIO pins can no longer be modified
 446:Drivers/STM32G0xx_HAL_Driver/Src/stm32g0xx_hal_gpio.c ****   *         until the next reset.
 447:Drivers/STM32G0xx_HAL_Driver/Src/stm32g0xx_hal_gpio.c ****   * @param  GPIOx where x can be (A..F) to select the GPIO peripheral for STM32G0xx family
 448:Drivers/STM32G0xx_HAL_Driver/Src/stm32g0xx_hal_gpio.c ****   * @param  GPIO_Pin specifies the port bits to be locked.
 449:Drivers/STM32G0xx_HAL_Driver/Src/stm32g0xx_hal_gpio.c ****   *         This parameter can be any combination of GPIO_Pin_x where x can be (0..15).
 450:Drivers/STM32G0xx_HAL_Driver/Src/stm32g0xx_hal_gpio.c ****   * @retval None
 451:Drivers/STM32G0xx_HAL_Driver/Src/stm32g0xx_hal_gpio.c ****   */
 452:Drivers/STM32G0xx_HAL_Driver/Src/stm32g0xx_hal_gpio.c **** HAL_StatusTypeDef HAL_GPIO_LockPin(GPIO_TypeDef *GPIOx, uint16_t GPIO_Pin)
 453:Drivers/STM32G0xx_HAL_Driver/Src/stm32g0xx_hal_gpio.c **** {
 860              		.loc 1 453 1 is_stmt 1 view -0
 861              		.cfi_startproc
 862              		@ args = 0, pretend = 0, frame = 8
 863              		@ frame_needed = 0, uses_anonymous_args = 0
 864              		@ link register save eliminated.
 865              		.loc 1 453 1 is_stmt 0 view .LVU297
ARM GAS  /tmp/ccFfnGEb.s 			page 26


 866 0000 82B0     		sub	sp, sp, #8
 867              	.LCFI3:
 868              		.cfi_def_cfa_offset 8
 454:Drivers/STM32G0xx_HAL_Driver/Src/stm32g0xx_hal_gpio.c ****   __IO uint32_t tmp = GPIO_LCKR_LCKK;
 869              		.loc 1 454 3 is_stmt 1 view .LVU298
 870              		.loc 1 454 17 is_stmt 0 view .LVU299
 871 0002 8022     		movs	r2, #128
 872 0004 5202     		lsls	r2, r2, #9
 873 0006 0192     		str	r2, [sp, #4]
 455:Drivers/STM32G0xx_HAL_Driver/Src/stm32g0xx_hal_gpio.c **** 
 456:Drivers/STM32G0xx_HAL_Driver/Src/stm32g0xx_hal_gpio.c ****   /* Check the parameters */
 457:Drivers/STM32G0xx_HAL_Driver/Src/stm32g0xx_hal_gpio.c ****   assert_param(IS_GPIO_LOCK_INSTANCE(GPIOx));
 874              		.loc 1 457 3 is_stmt 1 view .LVU300
 458:Drivers/STM32G0xx_HAL_Driver/Src/stm32g0xx_hal_gpio.c ****   assert_param(IS_GPIO_PIN(GPIO_Pin));
 875              		.loc 1 458 3 view .LVU301
 459:Drivers/STM32G0xx_HAL_Driver/Src/stm32g0xx_hal_gpio.c **** 
 460:Drivers/STM32G0xx_HAL_Driver/Src/stm32g0xx_hal_gpio.c ****   /* Apply lock key write sequence */
 461:Drivers/STM32G0xx_HAL_Driver/Src/stm32g0xx_hal_gpio.c ****   tmp |= GPIO_Pin;
 876              		.loc 1 461 3 view .LVU302
 877              		.loc 1 461 7 is_stmt 0 view .LVU303
 878 0008 019B     		ldr	r3, [sp, #4]
 879 000a 0B43     		orrs	r3, r1
 880 000c 0193     		str	r3, [sp, #4]
 462:Drivers/STM32G0xx_HAL_Driver/Src/stm32g0xx_hal_gpio.c ****   /* Set LCKx bit(s): LCKK='1' + LCK[15-0] */
 463:Drivers/STM32G0xx_HAL_Driver/Src/stm32g0xx_hal_gpio.c ****   GPIOx->LCKR = tmp;
 881              		.loc 1 463 3 is_stmt 1 view .LVU304
 882              		.loc 1 463 15 is_stmt 0 view .LVU305
 883 000e 019B     		ldr	r3, [sp, #4]
 884 0010 C361     		str	r3, [r0, #28]
 464:Drivers/STM32G0xx_HAL_Driver/Src/stm32g0xx_hal_gpio.c ****   /* Reset LCKx bit(s): LCKK='0' + LCK[15-0] */
 465:Drivers/STM32G0xx_HAL_Driver/Src/stm32g0xx_hal_gpio.c ****   GPIOx->LCKR = GPIO_Pin;
 885              		.loc 1 465 3 is_stmt 1 view .LVU306
 886              		.loc 1 465 15 is_stmt 0 view .LVU307
 887 0012 C161     		str	r1, [r0, #28]
 466:Drivers/STM32G0xx_HAL_Driver/Src/stm32g0xx_hal_gpio.c ****   /* Set LCKx bit(s): LCKK='1' + LCK[15-0] */
 467:Drivers/STM32G0xx_HAL_Driver/Src/stm32g0xx_hal_gpio.c ****   GPIOx->LCKR = tmp;
 888              		.loc 1 467 3 is_stmt 1 view .LVU308
 889              		.loc 1 467 15 is_stmt 0 view .LVU309
 890 0014 019B     		ldr	r3, [sp, #4]
 891 0016 C361     		str	r3, [r0, #28]
 468:Drivers/STM32G0xx_HAL_Driver/Src/stm32g0xx_hal_gpio.c ****   /* Read LCKK register. This read is mandatory to complete key lock sequence */
 469:Drivers/STM32G0xx_HAL_Driver/Src/stm32g0xx_hal_gpio.c ****   tmp = GPIOx->LCKR;
 892              		.loc 1 469 3 is_stmt 1 view .LVU310
 893              		.loc 1 469 14 is_stmt 0 view .LVU311
 894 0018 C369     		ldr	r3, [r0, #28]
 895              		.loc 1 469 7 view .LVU312
 896 001a 0193     		str	r3, [sp, #4]
 470:Drivers/STM32G0xx_HAL_Driver/Src/stm32g0xx_hal_gpio.c **** 
 471:Drivers/STM32G0xx_HAL_Driver/Src/stm32g0xx_hal_gpio.c ****   /* read again in order to confirm lock is active */
 472:Drivers/STM32G0xx_HAL_Driver/Src/stm32g0xx_hal_gpio.c ****   if ((GPIOx->LCKR & GPIO_LCKR_LCKK) != 0x00u)
 897              		.loc 1 472 3 is_stmt 1 view .LVU313
 898              		.loc 1 472 13 is_stmt 0 view .LVU314
 899 001c C369     		ldr	r3, [r0, #28]
 900              		.loc 1 472 6 view .LVU315
 901 001e 1342     		tst	r3, r2
 902 0020 02D0     		beq	.L51
 473:Drivers/STM32G0xx_HAL_Driver/Src/stm32g0xx_hal_gpio.c ****   {
ARM GAS  /tmp/ccFfnGEb.s 			page 27


 474:Drivers/STM32G0xx_HAL_Driver/Src/stm32g0xx_hal_gpio.c ****     return HAL_OK;
 903              		.loc 1 474 12 view .LVU316
 904 0022 0020     		movs	r0, #0
 905              	.LVL72:
 906              	.L50:
 475:Drivers/STM32G0xx_HAL_Driver/Src/stm32g0xx_hal_gpio.c ****   }
 476:Drivers/STM32G0xx_HAL_Driver/Src/stm32g0xx_hal_gpio.c ****   else
 477:Drivers/STM32G0xx_HAL_Driver/Src/stm32g0xx_hal_gpio.c ****   {
 478:Drivers/STM32G0xx_HAL_Driver/Src/stm32g0xx_hal_gpio.c ****     return HAL_ERROR;
 479:Drivers/STM32G0xx_HAL_Driver/Src/stm32g0xx_hal_gpio.c ****   }
 480:Drivers/STM32G0xx_HAL_Driver/Src/stm32g0xx_hal_gpio.c **** }
 907              		.loc 1 480 1 view .LVU317
 908 0024 02B0     		add	sp, sp, #8
 909              		@ sp needed
 910 0026 7047     		bx	lr
 911              	.LVL73:
 912              	.L51:
 478:Drivers/STM32G0xx_HAL_Driver/Src/stm32g0xx_hal_gpio.c ****   }
 913              		.loc 1 478 12 view .LVU318
 914 0028 0120     		movs	r0, #1
 915              	.LVL74:
 478:Drivers/STM32G0xx_HAL_Driver/Src/stm32g0xx_hal_gpio.c ****   }
 916              		.loc 1 478 12 view .LVU319
 917 002a FBE7     		b	.L50
 918              		.cfi_endproc
 919              	.LFE315:
 921              		.section	.text.HAL_GPIO_EXTI_Rising_Callback,"ax",%progbits
 922              		.align	1
 923              		.weak	HAL_GPIO_EXTI_Rising_Callback
 924              		.syntax unified
 925              		.code	16
 926              		.thumb_func
 928              	HAL_GPIO_EXTI_Rising_Callback:
 929              	.LVL75:
 930              	.LFB317:
 481:Drivers/STM32G0xx_HAL_Driver/Src/stm32g0xx_hal_gpio.c **** 
 482:Drivers/STM32G0xx_HAL_Driver/Src/stm32g0xx_hal_gpio.c **** /**
 483:Drivers/STM32G0xx_HAL_Driver/Src/stm32g0xx_hal_gpio.c ****   * @brief  Handle EXTI interrupt request.
 484:Drivers/STM32G0xx_HAL_Driver/Src/stm32g0xx_hal_gpio.c ****   * @param  GPIO_Pin Specifies the port pin connected to corresponding EXTI line.
 485:Drivers/STM32G0xx_HAL_Driver/Src/stm32g0xx_hal_gpio.c ****   * @retval None
 486:Drivers/STM32G0xx_HAL_Driver/Src/stm32g0xx_hal_gpio.c ****   */
 487:Drivers/STM32G0xx_HAL_Driver/Src/stm32g0xx_hal_gpio.c **** void HAL_GPIO_EXTI_IRQHandler(uint16_t GPIO_Pin)
 488:Drivers/STM32G0xx_HAL_Driver/Src/stm32g0xx_hal_gpio.c **** {
 489:Drivers/STM32G0xx_HAL_Driver/Src/stm32g0xx_hal_gpio.c ****   /* EXTI line interrupt detected */
 490:Drivers/STM32G0xx_HAL_Driver/Src/stm32g0xx_hal_gpio.c ****   if (__HAL_GPIO_EXTI_GET_RISING_IT(GPIO_Pin) != 0x00u)
 491:Drivers/STM32G0xx_HAL_Driver/Src/stm32g0xx_hal_gpio.c ****   {
 492:Drivers/STM32G0xx_HAL_Driver/Src/stm32g0xx_hal_gpio.c ****     __HAL_GPIO_EXTI_CLEAR_RISING_IT(GPIO_Pin);
 493:Drivers/STM32G0xx_HAL_Driver/Src/stm32g0xx_hal_gpio.c ****     HAL_GPIO_EXTI_Rising_Callback(GPIO_Pin);
 494:Drivers/STM32G0xx_HAL_Driver/Src/stm32g0xx_hal_gpio.c ****   }
 495:Drivers/STM32G0xx_HAL_Driver/Src/stm32g0xx_hal_gpio.c **** 
 496:Drivers/STM32G0xx_HAL_Driver/Src/stm32g0xx_hal_gpio.c ****   if (__HAL_GPIO_EXTI_GET_FALLING_IT(GPIO_Pin) != 0x00u)
 497:Drivers/STM32G0xx_HAL_Driver/Src/stm32g0xx_hal_gpio.c ****   {
 498:Drivers/STM32G0xx_HAL_Driver/Src/stm32g0xx_hal_gpio.c ****     __HAL_GPIO_EXTI_CLEAR_FALLING_IT(GPIO_Pin);
 499:Drivers/STM32G0xx_HAL_Driver/Src/stm32g0xx_hal_gpio.c ****     HAL_GPIO_EXTI_Falling_Callback(GPIO_Pin);
 500:Drivers/STM32G0xx_HAL_Driver/Src/stm32g0xx_hal_gpio.c ****   }
 501:Drivers/STM32G0xx_HAL_Driver/Src/stm32g0xx_hal_gpio.c **** }
 502:Drivers/STM32G0xx_HAL_Driver/Src/stm32g0xx_hal_gpio.c **** 
ARM GAS  /tmp/ccFfnGEb.s 			page 28


 503:Drivers/STM32G0xx_HAL_Driver/Src/stm32g0xx_hal_gpio.c **** /**
 504:Drivers/STM32G0xx_HAL_Driver/Src/stm32g0xx_hal_gpio.c ****   * @brief  EXTI line detection callback.
 505:Drivers/STM32G0xx_HAL_Driver/Src/stm32g0xx_hal_gpio.c ****   * @param  GPIO_Pin Specifies the port pin connected to corresponding EXTI line.
 506:Drivers/STM32G0xx_HAL_Driver/Src/stm32g0xx_hal_gpio.c ****   * @retval None
 507:Drivers/STM32G0xx_HAL_Driver/Src/stm32g0xx_hal_gpio.c ****   */
 508:Drivers/STM32G0xx_HAL_Driver/Src/stm32g0xx_hal_gpio.c **** __weak void HAL_GPIO_EXTI_Rising_Callback(uint16_t GPIO_Pin)
 509:Drivers/STM32G0xx_HAL_Driver/Src/stm32g0xx_hal_gpio.c **** {
 931              		.loc 1 509 1 is_stmt 1 view -0
 932              		.cfi_startproc
 933              		@ args = 0, pretend = 0, frame = 0
 934              		@ frame_needed = 0, uses_anonymous_args = 0
 935              		@ link register save eliminated.
 510:Drivers/STM32G0xx_HAL_Driver/Src/stm32g0xx_hal_gpio.c ****   /* Prevent unused argument(s) compilation warning */
 511:Drivers/STM32G0xx_HAL_Driver/Src/stm32g0xx_hal_gpio.c ****   UNUSED(GPIO_Pin);
 936              		.loc 1 511 3 view .LVU321
 512:Drivers/STM32G0xx_HAL_Driver/Src/stm32g0xx_hal_gpio.c **** 
 513:Drivers/STM32G0xx_HAL_Driver/Src/stm32g0xx_hal_gpio.c ****   /* NOTE: This function should not be modified, when the callback is needed,
 514:Drivers/STM32G0xx_HAL_Driver/Src/stm32g0xx_hal_gpio.c ****            the HAL_GPIO_EXTI_Rising_Callback could be implemented in the user file
 515:Drivers/STM32G0xx_HAL_Driver/Src/stm32g0xx_hal_gpio.c ****    */
 516:Drivers/STM32G0xx_HAL_Driver/Src/stm32g0xx_hal_gpio.c **** }
 937              		.loc 1 516 1 is_stmt 0 view .LVU322
 938              		@ sp needed
 939 0000 7047     		bx	lr
 940              		.cfi_endproc
 941              	.LFE317:
 943              		.section	.text.HAL_GPIO_EXTI_Falling_Callback,"ax",%progbits
 944              		.align	1
 945              		.weak	HAL_GPIO_EXTI_Falling_Callback
 946              		.syntax unified
 947              		.code	16
 948              		.thumb_func
 950              	HAL_GPIO_EXTI_Falling_Callback:
 951              	.LVL76:
 952              	.LFB318:
 517:Drivers/STM32G0xx_HAL_Driver/Src/stm32g0xx_hal_gpio.c **** 
 518:Drivers/STM32G0xx_HAL_Driver/Src/stm32g0xx_hal_gpio.c **** /**
 519:Drivers/STM32G0xx_HAL_Driver/Src/stm32g0xx_hal_gpio.c ****   * @brief  EXTI line detection callback.
 520:Drivers/STM32G0xx_HAL_Driver/Src/stm32g0xx_hal_gpio.c ****   * @param  GPIO_Pin Specifies the port pin connected to corresponding EXTI line.
 521:Drivers/STM32G0xx_HAL_Driver/Src/stm32g0xx_hal_gpio.c ****   * @retval None
 522:Drivers/STM32G0xx_HAL_Driver/Src/stm32g0xx_hal_gpio.c ****   */
 523:Drivers/STM32G0xx_HAL_Driver/Src/stm32g0xx_hal_gpio.c **** __weak void HAL_GPIO_EXTI_Falling_Callback(uint16_t GPIO_Pin)
 524:Drivers/STM32G0xx_HAL_Driver/Src/stm32g0xx_hal_gpio.c **** {
 953              		.loc 1 524 1 is_stmt 1 view -0
 954              		.cfi_startproc
 955              		@ args = 0, pretend = 0, frame = 0
 956              		@ frame_needed = 0, uses_anonymous_args = 0
 957              		@ link register save eliminated.
 525:Drivers/STM32G0xx_HAL_Driver/Src/stm32g0xx_hal_gpio.c ****   /* Prevent unused argument(s) compilation warning */
 526:Drivers/STM32G0xx_HAL_Driver/Src/stm32g0xx_hal_gpio.c ****   UNUSED(GPIO_Pin);
 958              		.loc 1 526 3 view .LVU324
 527:Drivers/STM32G0xx_HAL_Driver/Src/stm32g0xx_hal_gpio.c **** 
 528:Drivers/STM32G0xx_HAL_Driver/Src/stm32g0xx_hal_gpio.c ****   /* NOTE: This function should not be modified, when the callback is needed,
 529:Drivers/STM32G0xx_HAL_Driver/Src/stm32g0xx_hal_gpio.c ****            the HAL_GPIO_EXTI_Falling_Callback could be implemented in the user file
 530:Drivers/STM32G0xx_HAL_Driver/Src/stm32g0xx_hal_gpio.c ****    */
 531:Drivers/STM32G0xx_HAL_Driver/Src/stm32g0xx_hal_gpio.c **** }
 959              		.loc 1 531 1 is_stmt 0 view .LVU325
 960              		@ sp needed
ARM GAS  /tmp/ccFfnGEb.s 			page 29


 961 0000 7047     		bx	lr
 962              		.cfi_endproc
 963              	.LFE318:
 965              		.section	.text.HAL_GPIO_EXTI_IRQHandler,"ax",%progbits
 966              		.align	1
 967              		.global	HAL_GPIO_EXTI_IRQHandler
 968              		.syntax unified
 969              		.code	16
 970              		.thumb_func
 972              	HAL_GPIO_EXTI_IRQHandler:
 973              	.LVL77:
 974              	.LFB316:
 488:Drivers/STM32G0xx_HAL_Driver/Src/stm32g0xx_hal_gpio.c ****   /* EXTI line interrupt detected */
 975              		.loc 1 488 1 is_stmt 1 view -0
 976              		.cfi_startproc
 977              		@ args = 0, pretend = 0, frame = 0
 978              		@ frame_needed = 0, uses_anonymous_args = 0
 488:Drivers/STM32G0xx_HAL_Driver/Src/stm32g0xx_hal_gpio.c ****   /* EXTI line interrupt detected */
 979              		.loc 1 488 1 is_stmt 0 view .LVU327
 980 0000 10B5     		push	{r4, lr}
 981              	.LCFI4:
 982              		.cfi_def_cfa_offset 8
 983              		.cfi_offset 4, -8
 984              		.cfi_offset 14, -4
 985 0002 0400     		movs	r4, r0
 490:Drivers/STM32G0xx_HAL_Driver/Src/stm32g0xx_hal_gpio.c ****   {
 986              		.loc 1 490 3 is_stmt 1 view .LVU328
 490:Drivers/STM32G0xx_HAL_Driver/Src/stm32g0xx_hal_gpio.c ****   {
 987              		.loc 1 490 7 is_stmt 0 view .LVU329
 988 0004 094B     		ldr	r3, .L59
 989 0006 DB68     		ldr	r3, [r3, #12]
 490:Drivers/STM32G0xx_HAL_Driver/Src/stm32g0xx_hal_gpio.c ****   {
 990              		.loc 1 490 6 view .LVU330
 991 0008 1842     		tst	r0, r3
 992 000a 04D1     		bne	.L57
 993              	.LVL78:
 994              	.L55:
 496:Drivers/STM32G0xx_HAL_Driver/Src/stm32g0xx_hal_gpio.c ****   {
 995              		.loc 1 496 3 is_stmt 1 view .LVU331
 496:Drivers/STM32G0xx_HAL_Driver/Src/stm32g0xx_hal_gpio.c ****   {
 996              		.loc 1 496 7 is_stmt 0 view .LVU332
 997 000c 074B     		ldr	r3, .L59
 998 000e 1B69     		ldr	r3, [r3, #16]
 496:Drivers/STM32G0xx_HAL_Driver/Src/stm32g0xx_hal_gpio.c ****   {
 999              		.loc 1 496 6 view .LVU333
 1000 0010 2342     		tst	r3, r4
 1001 0012 05D1     		bne	.L58
 1002              	.L54:
 501:Drivers/STM32G0xx_HAL_Driver/Src/stm32g0xx_hal_gpio.c **** 
 1003              		.loc 1 501 1 view .LVU334
 1004              		@ sp needed
 1005              	.LVL79:
 501:Drivers/STM32G0xx_HAL_Driver/Src/stm32g0xx_hal_gpio.c **** 
 1006              		.loc 1 501 1 view .LVU335
 1007 0014 10BD     		pop	{r4, pc}
 1008              	.LVL80:
 1009              	.L57:
ARM GAS  /tmp/ccFfnGEb.s 			page 30


 492:Drivers/STM32G0xx_HAL_Driver/Src/stm32g0xx_hal_gpio.c ****     HAL_GPIO_EXTI_Rising_Callback(GPIO_Pin);
 1010              		.loc 1 492 5 is_stmt 1 view .LVU336
 1011 0016 054B     		ldr	r3, .L59
 1012 0018 D860     		str	r0, [r3, #12]
 493:Drivers/STM32G0xx_HAL_Driver/Src/stm32g0xx_hal_gpio.c ****   }
 1013              		.loc 1 493 5 view .LVU337
 1014 001a FFF7FEFF 		bl	HAL_GPIO_EXTI_Rising_Callback
 1015              	.LVL81:
 493:Drivers/STM32G0xx_HAL_Driver/Src/stm32g0xx_hal_gpio.c ****   }
 1016              		.loc 1 493 5 is_stmt 0 view .LVU338
 1017 001e F5E7     		b	.L55
 1018              	.L58:
 498:Drivers/STM32G0xx_HAL_Driver/Src/stm32g0xx_hal_gpio.c ****     HAL_GPIO_EXTI_Falling_Callback(GPIO_Pin);
 1019              		.loc 1 498 5 is_stmt 1 view .LVU339
 1020 0020 024B     		ldr	r3, .L59
 1021 0022 1C61     		str	r4, [r3, #16]
 499:Drivers/STM32G0xx_HAL_Driver/Src/stm32g0xx_hal_gpio.c ****   }
 1022              		.loc 1 499 5 view .LVU340
 1023 0024 2000     		movs	r0, r4
 1024 0026 FFF7FEFF 		bl	HAL_GPIO_EXTI_Falling_Callback
 1025              	.LVL82:
 501:Drivers/STM32G0xx_HAL_Driver/Src/stm32g0xx_hal_gpio.c **** 
 1026              		.loc 1 501 1 is_stmt 0 view .LVU341
 1027 002a F3E7     		b	.L54
 1028              	.L60:
 1029              		.align	2
 1030              	.L59:
 1031 002c 00180240 		.word	1073879040
 1032              		.cfi_endproc
 1033              	.LFE316:
 1035              		.text
 1036              	.Letext0:
 1037              		.file 2 "/home/achraf/Desktop/Toolchain/arm-gnu-toolchain-14.3.rel1-x86_64-arm-none-eabi/arm-none-
 1038              		.file 3 "/home/achraf/Desktop/Toolchain/arm-gnu-toolchain-14.3.rel1-x86_64-arm-none-eabi/arm-none-
 1039              		.file 4 "Drivers/CMSIS/Device/ST/STM32G0xx/Include/stm32g070xx.h"
 1040              		.file 5 "Drivers/STM32G0xx_HAL_Driver/Inc/stm32g0xx_hal_def.h"
 1041              		.file 6 "Drivers/STM32G0xx_HAL_Driver/Inc/stm32g0xx_hal_gpio.h"
 1042              		.file 7 "Drivers/STM32G0xx_HAL_Driver/Inc/stm32g0xx_ll_dma.h"
ARM GAS  /tmp/ccFfnGEb.s 			page 31

